(dp0
S'stock'
p1
(lp2
I20
asS'bagpipe'
p3
(lp4
I20
asS'pardon'
p5
(lp6
I20
aI22
asS'demand'
p7
(lp8
I20
asS'four'
p9
(lp10
I2
aI3
aI8
aI9
aI11
aI20
asS'hath'
p11
(lp12
I2
aI3
aI4
aI5
aI6
aI8
aI10
aI11
aI12
aI13
aI15
aI16
aI19
aI20
aI21
aI22
asS'protest'
p13
(lp14
I20
asS'sleep'
p15
(lp16
I2
aI9
asS'knell'
p17
(lp18
I16
asS'hanging'
p19
(lp20
I6
aI13
asS'mansion'
p21
(lp22
I16
asS'appetite'
p23
(lp24
I10
asS'evermore'
p25
(lp26
I2
aI20
asS'hate'
p27
(lp28
I4
aI9
aI16
aI20
asS'yonder'
p29
(lp30
I6
aI22
asS'consider'
p31
(lp32
I20
asS'whose'
p33
(lp34
I2
aI4
aI5
aI11
aI16
aI18
aI20
aI22
asS'unfeeling'
p35
(lp36
I20
asS'ceases'
p37
(lp38
I22
asS'besmear'
p39
(lp40
I22
asS'laughable'
p41
(lp42
I2
asS'swan'
p43
(lp44
I16
asS'sweetest'
p45
(lp46
I22
asS'tickle'
p47
(lp48
I15
asS'neighbours'
p49
(lp50
I15
asS'orpheus'
p51
(lp52
I22
asS'under'
p53
(lp54
I3
aI8
aI10
aI12
aI20
asS'lord'
p55
(lp56
I2
aI3
aI6
aI13
aI16
aI18
aI19
aI20
aI21
aI22
asS'sorry'
p57
(lp58
I7
aI20
asS'ergo'
p59
(lp60
I6
asS'sway'
p61
(lp62
I4
aI20
asS'worth'
p63
(lp64
I2
aI9
aI10
asS'thrifty'
p65
(lp66
I9
asS'merchant'
p67
(lp68
I1
aI2
aI3
aI4
aI5
aI6
aI7
aI8
aI9
aI10
aI11
aI12
aI13
aI15
aI16
aI17
aI18
aI19
aI20
aI21
asS'amorous'
p69
(lp70
I12
asS'lungs'
p71
(lp72
I20
asS'incurr'
p73
(lp74
I20
asS'void'
p75
(lp76
I4
aI20
aI22
asS'hadst'
p77
(lp78
I17
asS'bosoms'
p79
(lp80
I20
asS'smack'
p81
(lp82
I6
asS'appropriation'
p83
(lp84
I3
asS'every'
p85
(lp86
I2
aI3
aI6
aI13
aI16
aI19
aI20
aI22
asS'nourished'
p87
(lp88
I16
asS'govern'
p89
(lp90
I19
aI20
asS'jacob'
p91
(lp92
I4
aI9
asS'courageous'
p93
(lp94
I6
asS'special'
p95
(lp96
I22
asS'school'
p97
(lp98
I2
aI18
asS'scholar'
p99
(lp100
I3
asS'conceive'
p101
(lp102
I22
asS'wednesday'
p103
(lp104
I4
aI9
asS'conveniency'
p105
(lp106
I20
asS'misbeliever'
p107
(lp108
I4
asS'venus'
p109
(lp110
I10
asS'graces'
p111
(lp112
I11
asS'clothes'
p113
(lp114
I10
asS'enjoy'
p115
(lp116
I10
asS'parted'
p117
(lp118
I6
aI12
aI16
aI22
asS'force'
p119
(lp120
I13
aI20
asS'direct'
p121
(lp122
I11
aI20
asS'sabbath'
p123
(lp124
I20
asS'horn'
p125
(lp126
I22
asS'second'
p127
(lp128
I11
aI16
aI20
asS'street'
p129
(lp130
I2
aI6
aI8
aI9
aI12
aI15
aI17
aI21
asS'sooth'
p131
(lp132
I2
aI10
asS'valiant'
p133
(lp134
I5
asS'rigorous'
p135
(lp136
I20
asS'loathing'
p137
(lp138
I20
asS'even'
p139
(lp140
I2
aI4
aI5
aI10
aI11
aI12
aI13
aI16
aI19
aI20
aI22
asS'employ'
p141
(lp142
I12
aI20
asS'riseth'
p143
(lp144
I10
asS'wreck'
p145
(lp146
I15
asS'saved'
p147
(lp148
I19
asS'beaten'
p149
(lp150
I5
asS'misconstrued'
p151
(lp152
I6
asS'poison'
p153
(lp154
I15
asS'reasoning'
p155
(lp156
I3
asS'lights'
p157
(lp158
I15
asS'falconbridge'
p159
(lp160
I3
asS'sunder'
p161
(lp162
I16
asS'above'
p163
(lp164
I10
aI18
aI20
asS'conduct'
p165
(lp166
I20
asS'churches'
p167
(lp168
I3
asS'jaundice'
p169
(lp170
I2
asS'ever'
p171
(lp172
I3
aI10
aI13
aI15
aI16
aI17
aI18
aI20
aI21
asS'seeks'
p173
(lp174
I17
asS'told'
p175
(lp176
I4
aI5
aI11
aI12
aI16
aI20
asS'chins'
p177
(lp178
I16
asS'men'
p179
(lp180
I2
aI3
aI4
aI5
aI11
aI13
aI15
aI16
aI17
aI18
aI20
aI21
asS'here'
p181
(lp182
I2
aI3
aI4
aI6
aI8
aI10
aI11
aI13
aI15
aI16
aI18
aI19
aI20
aI21
aI22
asS'herd'
p183
(lp184
I22
asS'protection'
p185
(lp186
I22
asS'humility'
p187
(lp188
I15
asS'hers'
p189
(lp190
I15
asS'obtained'
p191
(lp192
I3
asS'substance'
p193
(lp194
I16
aI20
asS'daughter'
p195
(lp196
I1
aI2
aI3
aI7
aI8
aI9
aI12
aI15
aI19
aI20
asS'ventures'
p197
(lp198
I2
aI4
aI16
asS'intercessors'
p199
(lp200
I17
asS'changed'
p201
(lp202
I2
aI6
asS'controversy'
p203
(lp204
I20
asS'credit'
p205
(lp206
I2
aI22
asS'natures'
p207
(lp208
I13
asS'bettered'
p209
(lp210
I20
asS'mutual'
p211
(lp212
I22
asS'golden'
p213
(lp214
I2
aI11
aI13
aI16
asS'envious'
p215
(lp216
I16
asS'besides'
p217
(lp218
I5
aI12
aI13
aI16
asS'stray'
p219
(lp220
I11
aI22
asS'county'
p221
(lp222
I3
asS'patience'
p223
(lp224
I10
aI20
asS'tween'
p225
(lp226
I16
asS'sternest'
p227
(lp228
I5
asS'spoke'
p229
(lp230
I6
aI8
aI15
aI16
aI20
asS'would'
p231
(lp232
I2
aI3
aI4
aI5
aI6
aI7
aI9
aI10
aI12
aI13
aI15
aI16
aI18
aI20
aI21
aI22
asS'army'
p233
(lp234
I19
asS'played'
p235
(lp236
I3
asS'chooses'
p237
(lp238
I3
asS'bleed'
p239
(lp240
I15
aI20
asS'asses'
p241
(lp242
I20
asS'mightiest'
p243
(lp244
I20
asS'call'
p245
(lp246
I2
aI4
aI9
aI15
aI16
aI17
aI20
asS'therefore'
p247
(lp248
I2
aI3
aI5
aI9
aI10
aI16
aI17
aI18
aI19
aI20
aI22
asS'shed'
p249
(lp250
I20
asS'tell'
p251
(lp252
I2
aI4
aI5
aI6
aI8
aI9
aI10
aI12
aI13
aI15
aI16
aI17
aI18
aI19
aI20
aI21
aI22
asS'barbarous'
p253
(lp254
I13
asS'breeders'
p255
(lp256
I4
asS'brings'
p257
(lp258
I3
aI4
aI16
asS'hurt'
p259
(lp260
I15
asS'grief'
p261
(lp262
I22
asS'glass'
p263
(lp264
I2
aI3
asS'warm'
p265
(lp266
I2
asS'teaching'
p267
(lp268
I3
aI20
asS'hold'
p269
(lp270
I2
aI8
aI10
aI16
aI17
aI18
aI20
aI22
asS'sped'
p271
(lp272
I13
asS'must'
p273
(lp274
I2
aI5
aI6
aI8
aI10
aI11
aI13
aI16
aI18
aI19
aI20
aI22
asS'shoot'
p275
(lp276
I2
asS'word'
p277
(lp278
I2
aI3
aI15
aI16
aI19
aI20
aI22
asS'room'
p279
(lp280
I3
aI5
aI7
aI11
aI13
aI16
aI18
aI20
asS'droppeth'
p281
(lp282
I20
asS'rights'
p283
(lp284
I16
asS'pursue'
p285
(lp286
I20
asS'work'
p287
(lp288
I4
aI18
asS'roof'
p289
(lp290
I16
asS'boldest'
p291
(lp292
I6
asS'ere'
p293
(lp294
I2
aI3
aI13
aI16
aI20
aI22
asS'vow'
p295
(lp296
I18
aI20
asS'sweeter'
p297
(lp298
I22
asS'elbow'
p299
(lp300
I6
asS'my'
p301
(lp302
I2
aI3
aI4
aI5
aI6
aI7
aI8
aI9
aI10
aI11
aI12
aI13
aI15
aI16
aI17
aI18
aI19
aI20
aI21
aI22
asS'example'
p303
(lp304
I15
aI20
asS'piers'
p305
(lp306
I2
asS'quarrel'
p307
(lp308
I22
asS'inscription'
p309
(lp310
I11
asS'estate'
p311
(lp312
I2
aI16
asS'give'
p313
(lp314
I4
aI6
aI7
aI11
aI13
aI16
aI18
aI20
aI21
aI22
asS'in'
p315
(lp316
I1
aI2
aI3
aI4
aI5
aI6
aI7
aI8
aI9
aI10
aI11
aI12
aI13
aI15
aI16
aI17
aI18
aI19
aI20
aI22
asS'india'
p317
(lp318
I16
asS'indies'
p319
(lp320
I4
asS'want'
p321
(lp322
I2
asS'keep'
p323
(lp324
I2
aI7
aI10
aI12
aI13
aI15
aI21
aI22
asS'worse'
p325
(lp326
I3
aI11
aI16
asS'ceremony'
p327
(lp328
I22
asS'end'
p329
(lp330
I2
aI4
aI7
aI15
aI16
aI20
asS'thing'
p331
(lp332
I2
aI3
aI4
aI20
aI22
asS'song'
p333
(lp334
I16
asS'riping'
p335
(lp336
I12
asS'how'
p337
(lp338
I2
aI3
aI4
aI6
aI8
aI10
aI11
aI13
aI15
aI16
aI18
aI19
aI20
aI22
asS'hot'
p339
(lp340
I3
aI22
asS'sever'
p341
(lp342
I16
asS'answer'
p343
(lp344
I4
aI11
aI12
aI19
aI20
aI22
asS'gate'
p345
(lp346
I13
aI18
asS'beach'
p347
(lp348
I20
asS'description'
p349
(lp350
I3
aI16
asS'mouths'
p351
(lp352
I4
asS'after'
p353
(lp354
I2
aI5
aI9
aI16
aI20
aI22
asS'grandam'
p355
(lp356
I6
asS'wrong'
p357
(lp358
I2
aI4
aI5
aI6
aI15
aI16
aI20
aI22
asS'mesh'
p359
(lp360
I16
asS'lay'
p361
(lp362
I19
aI20
aI22
asS'contrive'
p363
(lp364
I20
asS'law'
p365
(lp366
I12
aI16
aI17
aI20
asS'plies'
p367
(lp368
I16
asS'attempt'
p369
(lp370
I5
aI20
asS'third'
p371
(lp372
I4
aI11
aI15
asS'wins'
p373
(lp374
I5
asS'lost'
p375
(lp376
I2
aI9
aI11
aI15
aI16
aI22
asS'childhood'
p377
(lp378
I2
asS'haste'
p379
(lp380
I6
aI16
aI18
aI20
aI21
asS'puny'
p381
(lp382
I18
asS'enter'
p383
(lp384
I2
aI3
aI4
aI5
aI6
aI7
aI8
aI9
aI10
aI11
aI12
aI13
aI15
aI16
aI17
aI18
aI19
aI20
aI21
aI22
asS'aloud'
p385
(lp386
I21
asS'alack'
p387
(lp388
I6
aI7
asS'wouldst'
p389
(lp390
I6
aI20
asS'wind'
p391
(lp392
I2
aI10
aI16
aI22
asS'wine'
p393
(lp394
I2
aI3
aI15
asS'modesty'
p395
(lp396
I6
aI22
asS'woollen'
p397
(lp398
I20
asS'fife'
p399
(lp400
I9
asS'office'
p401
(lp402
I10
asS'over'
p403
(lp404
I3
aI4
aI10
aI16
aI20
asS'sibylla'
p405
(lp406
I3
asS'satisfied'
p407
(lp408
I20
aI22
asS'wrought'
p409
(lp410
I4
asS'digest'
p411
(lp412
I19
asS'before'
p413
(lp414
I3
aI4
aI5
aI9
aI10
aI13
aI15
aI16
aI17
aI18
aI19
aI20
aI21
aI22
asS'personae'
p415
(lp416
I1
asS'fit'
p417
(lp418
I22
asS'unforfeited'
p419
(lp420
I10
asS'thrust'
p421
(lp422
I9
asS'writing'
p423
(lp424
I11
aI22
asS'better'
p425
(lp426
I2
aI3
aI4
aI5
aI8
aI13
aI15
aI16
aI19
aI20
aI22
asS'condition'
p427
(lp428
I3
aI4
aI16
aI22
asS'fie'
p429
(lp430
I2
aI10
aI18
aI20
asS'bespeak'
p431
(lp432
I15
asS'easier'
p433
(lp434
I3
asS'belly'
p435
(lp436
I19
asS'then'
p437
(lp438
I2
aI3
aI4
aI5
aI6
aI9
aI10
aI11
aI13
aI15
aI16
aI17
aI18
aI19
aI20
aI22
asS'guiled'
p439
(lp440
I16
asS'ostents'
p441
(lp442
I12
asS'grievous'
p443
(lp444
I20
asS'diseases'
p445
(lp446
I15
asS'prevented'
p447
(lp448
I2
asS'thee'
p449
(lp450
I2
aI3
aI4
aI5
aI6
aI7
aI8
aI9
aI12
aI13
aI15
aI16
aI17
aI18
aI19
aI20
aI22
asS'safe'
p451
(lp452
I22
asS'gambols'
p453
(lp454
I16
asS'twere'
p455
(lp456
I2
aI11
aI20
aI22
asS'break'
p457
(lp458
I4
aI8
aI15
aI16
aI22
asS'throned'
p459
(lp460
I20
asS'coffer'
p461
(lp462
I20
asS'suitor'
p463
(lp464
I1
asS'sceptre'
p465
(lp466
I20
asS'one'
p467
(lp468
I2
aI3
aI5
aI6
aI9
aI11
aI13
aI15
aI16
aI19
aI20
aI22
asS'silver'
p469
(lp470
I3
aI4
aI11
aI13
asS'bank'
p471
(lp472
I22
asS'prize'
p473
(lp474
I13
aI16
asS'shadows'
p475
(lp476
I13
asS'yon'
p477
(lp478
I16
asS'meat'
p479
(lp480
I19
asS'gallows'
p481
(lp482
I20
asS'mistrust'
p483
(lp484
I16
asS'rocks'
p485
(lp486
I2
aI4
aI16
asS'arrow'
p487
(lp488
I2
asS'each'
p489
(lp490
I22
asS'went'
p491
(lp492
I12
asS'side'
p493
(lp494
I2
aI16
asS'bone'
p495
(lp496
I3
asS'mean'
p497
(lp498
I3
aI4
aI9
aI16
aI19
asS'obdurate'
p499
(lp500
I20
asS'burial'
p501
(lp502
I2
asS'observance'
p503
(lp504
I6
asS'concord'
p505
(lp506
I22
asS'diana'
p507
(lp508
I3
aI22
asS'erta'
p509
(lp510
I21
asS'spider'
p511
(lp512
I16
asS'taught'
p513
(lp514
I20
asS'fortnight'
p515
(lp516
I15
asS'forgot'
p517
(lp518
I4
asS'docno'
p519
(lp520
I1
aI2
aI3
aI4
aI5
aI6
aI7
aI8
aI9
aI10
aI11
aI12
aI13
aI14
aI15
aI16
aI17
aI18
aI19
aI20
aI21
aI22
asS'slew'
p521
(lp522
I5
asS'twill'
p523
(lp524
I6
aI20
asS'borne'
p525
(lp526
I4
asS'thoroughfares'
p527
(lp528
I11
asS'merchants'
p529
(lp530
I4
aI15
aI16
asS'fraught'
p531
(lp532
I12
asS'god'
p533
(lp534
I3
aI6
aI11
aI15
aI16
aI17
aI20
aI22
asS'dst'
p535
(lp536
I17
asS'fellows'
p537
(lp538
I2
aI6
aI19
asS'content'
p539
(lp540
I4
aI16
aI18
aI20
asS'laid'
p541
(lp542
I19
asS'daniel'
p543
(lp544
I20
asS'remorse'
p545
(lp546
I20
asS'undeserved'
p547
(lp548
I13
asS'heavenly'
p549
(lp550
I11
aI19
asS'got'
p551
(lp552
I6
aI16
aI19
aI22
asS'tricksy'
p553
(lp554
I19
asS'forth'
p555
(lp556
I2
aI9
aI16
aI19
aI20
aI22
asS'exaction'
p557
(lp558
I4
asS'quaintly'
p559
(lp560
I8
asS'turning'
p561
(lp562
I6
aI12
asS'assured'
p563
(lp564
I2
aI4
aI20
asS'written'
p565
(lp566
I11
asS'tops'
p567
(lp568
I20
asS'given'
p569
(lp570
I12
aI15
aI20
aI22
asS'free'
p571
(lp572
I20
asS'aforesaid'
p573
(lp574
I6
asS'bestow'
p575
(lp576
I6
aI18
asS'rain'
p577
(lp578
I20
asS'abate'
p579
(lp580
I22
asS'wolvish'
p581
(lp582
I20
asS'crowned'
p583
(lp584
I16
asS'entrap'
p585
(lp586
I16
asS'wanted'
p587
(lp588
I22
asS'certified'
p589
(lp590
I12
asS'incarnal'
p591
(lp592
I6
asS'messages'
p593
(lp594
I2
asS'days'
p595
(lp596
I2
asS'untread'
p597
(lp598
I10
asS'trebled'
p599
(lp600
I16
asS'renew'
p601
(lp602
I22
asS'bated'
p603
(lp604
I4
aI17
asS'prodigal'
p605
(lp606
I2
aI9
aI10
aI15
asS'ostent'
p607
(lp608
I6
asS'loud'
p609
(lp610
I20
aI22
asS'already'
p611
(lp612
I3
aI18
aI22
asS'render'
p613
(lp614
I16
aI18
aI20
asS'sentence'
p615
(lp616
I20
asS'hoop'
p617
(lp618
I22
asS'charter'
p619
(lp620
I20
asS'rank'
p621
(lp622
I4
aI13
asS'hearing'
p623
(lp624
I2
aI16
aI22
asS'will'
p625
(lp626
I2
aI3
aI4
aI5
aI6
aI8
aI9
aI10
aI11
aI13
aI15
aI16
aI17
aI18
aI19
aI20
aI21
aI22
asS'meshes'
p627
(lp628
I3
asS'another'
p629
(lp630
I2
aI3
aI4
aI15
aI19
aI20
asS'drones'
p631
(lp632
I9
asS'sober'
p633
(lp634
I3
aI6
aI9
aI16
asS'thick'
p635
(lp636
I22
asS'hood'
p637
(lp638
I6
aI10
asS'rated'
p639
(lp640
I4
aI11
asS'ten'
p641
(lp642
I10
aI11
aI16
aI20
asS'service'
p643
(lp644
I6
aI20
asS'top'
p645
(lp646
I2
asS'kinder'
p647
(lp648
I12
asS'master'
p649
(lp650
I3
aI6
aI7
aI8
aI9
aI15
aI16
aI22
asS'too'
p651
(lp652
I2
aI3
aI4
aI5
aI6
aI10
aI11
aI12
aI13
aI15
aI16
aI18
aI19
aI20
aI21
aI22
asS'dwell'
p653
(lp654
I4
aI6
asS'bethink'
p655
(lp656
I2
aI4
asS'legs'
p657
(lp658
I6
asS'dogs'
p659
(lp660
I20
asS'curtains'
p661
(lp662
I11
asS'likest'
p663
(lp664
I20
asS'murder'
p665
(lp666
I6
asS'paltry'
p667
(lp668
I22
asS'happily'
p669
(lp670
I6
asS'griefs'
p671
(lp672
I17
asS'serve'
p673
(lp674
I6
aI19
asS'took'
p675
(lp676
I19
aI22
asS'wisdom'
p677
(lp678
I2
aI13
aI20
asS'kindest'
p679
(lp680
I16
asS'kept'
p681
(lp682
I17
aI22
asS'mercy'
p683
(lp684
I17
aI19
aI20
asS'peril'
p685
(lp686
I4
aI6
aI20
asS'showed'
p687
(lp688
I15
asS'gently'
p689
(lp690
I22
asS'crosses'
p691
(lp692
I22
asS'tree'
p693
(lp694
I19
asS'rate'
p695
(lp696
I2
aI4
asS'imputation'
p697
(lp698
I4
asS'nations'
p699
(lp700
I17
asS'preparation'
p701
(lp702
I8
asS'matter'
p703
(lp704
I6
aI16
aI19
aI22
asS'persuade'
p705
(lp706
I16
asS'friend'
p707
(lp708
I1
aI4
aI6
aI8
aI16
aI20
aI22
asS'deserving'
p709
(lp710
I3
aI11
aI20
asS'mirth'
p711
(lp712
I2
aI6
asS'solely'
p713
(lp714
I5
asS'patines'
p715
(lp716
I22
asS'fashion'
p717
(lp718
I3
aI4
aI20
asS'sees'
p719
(lp720
I22
asS'gaudy'
p721
(lp722
I16
asS'ran'
p723
(lp724
I16
aI22
asS'enjoin'
p725
(lp726
I13
asS'mind'
p727
(lp728
I2
aI4
aI6
aI8
aI9
aI11
aI12
aI16
aI18
aI20
asS'mine'
p729
(lp730
I2
aI3
aI4
aI5
aI6
aI10
aI15
aI16
aI18
aI20
aI22
asS'ginger'
p731
(lp732
I15
asS'raw'
p733
(lp734
I18
asS'rat'
p735
(lp736
I20
asS'seed'
p737
(lp738
I13
asS'manner'
p739
(lp740
I3
asS'seen'
p741
(lp742
I12
aI13
aI16
asS'seem'
p743
(lp744
I6
aI8
aI16
asS'seek'
p745
(lp746
I2
aI3
aI10
aI15
aI16
aI20
asS'tells'
p747
(lp748
I16
aI19
asS'contents'
p749
(lp750
I16
asS'affairs'
p751
(lp752
I10
asS'abroad'
p753
(lp754
I2
aI4
aI17
asS'scapes'
p755
(lp756
I6
asS'solyman'
p757
(lp758
I5
asS'cottages'
p759
(lp760
I3
asS'convenient'
p761
(lp762
I18
asS'latter'
p763
(lp764
I2
asS'cope'
p765
(lp766
I20
asS'snow'
p767
(lp768
I16
asS'chest'
p769
(lp770
I13
asS'subjects'
p771
(lp772
I16
asS'doors'
p773
(lp774
I9
aI10
asS'laughed'
p775
(lp776
I15
asS'pilgrimage'
p777
(lp778
I2
asS'maiden'
p779
(lp780
I5
aI16
asS'shall'
p781
(lp782
I2
aI3
aI4
aI5
aI6
aI7
aI8
aI9
aI10
aI11
aI12
aI13
aI15
aI16
aI17
aI18
aI19
aI20
aI21
aI22
asS'object'
p783
(lp784
I2
asS'doit'
p785
(lp786
I4
asS'mouth'
p787
(lp788
I3
asS'reverence'
p789
(lp790
I2
aI6
asS'proverb'
p791
(lp792
I6
aI9
asS'coin'
p793
(lp794
I11
asS'grave'
p795
(lp796
I11
aI22
asS'peevish'
p797
(lp798
I2
asS'servitor'
p799
(lp800
I13
asS'mitigate'
p801
(lp802
I20
asS'torchbearer'
p803
(lp804
I10
asS'deliberate'
p805
(lp806
I13
asS'metal'
p807
(lp808
I4
aI20
asS'dog'
p809
(lp810
I2
aI4
aI12
aI17
aI20
asS'orderly'
p811
(lp812
I6
asS'singed'
p813
(lp814
I13
asS'place'
p815
(lp816
I2
aI4
aI6
aI15
aI18
aI19
aI20
asS'breathed'
p817
(lp818
I18
asS'ducat'
p819
(lp820
I7
aI20
asS'weakest'
p821
(lp822
I20
asS'nerissa'
p823
(lp824
I1
aI3
aI5
aI13
aI16
aI18
aI20
aI21
aI22
asS'sum'
p825
(lp826
I2
aI4
aI16
aI20
asS'came'
p827
(lp828
I2
aI3
aI12
aI13
aI15
aI20
asS'marvel'
p829
(lp830
I10
asS'saying'
p831
(lp832
I2
aI4
aI6
aI11
aI13
aI16
asS'bait'
p833
(lp834
I2
aI15
asS'queen'
p835
(lp836
I5
aI16
asS'nominated'
p837
(lp838
I4
aI20
asS'attempts'
p839
(lp840
I20
asS'gauge'
p841
(lp842
I6
asS'icicles'
p843
(lp844
I5
asS'wrung'
p845
(lp846
I12
asS'nephew'
p847
(lp848
I3
asS'surety'
p849
(lp850
I3
aI22
asS'charity'
p851
(lp852
I3
aI20
asS'pageants'
p853
(lp854
I2
asS'bind'
p855
(lp856
I9
asS'just'
p857
(lp858
I20
asS'quaint'
p859
(lp860
I18
asS'cousins'
p861
(lp862
I6
asS'debts'
p863
(lp864
I2
aI16
asS'cripple'
p865
(lp866
I3
asS'sugar'
p867
(lp868
I16
asS'spits'
p869
(lp870
I11
asS'bliss'
p871
(lp872
I13
aI16
asS'rich'
p873
(lp874
I1
aI2
aI6
aI11
aI12
aI13
aI15
aI16
aI22
asS'heartily'
p875
(lp876
I10
aI20
asS'scripture'
p877
(lp878
I4
asS'stephano'
p879
(lp880
I1
aI22
asS'borrowed'
p881
(lp882
I3
asS'do'
p883
(lp884
I2
aI3
aI4
aI6
aI7
aI8
aI9
aI10
aI11
aI12
aI13
aI15
aI16
aI17
aI18
aI19
aI20
aI21
aI22
asS'forsworn'
p885
(lp886
I16
asS'inscriptions'
p887
(lp888
I11
asS'watch'
p889
(lp890
I2
aI10
aI22
asS'perceive'
p891
(lp892
I22
asS'blinking'
p893
(lp894
I13
asS'coast'
p895
(lp896
I2
asS'pocket'
p897
(lp898
I6
asS'bootless'
p899
(lp900
I17
asS'new'
p901
(lp902
I6
aI7
aI8
aI10
aI13
aI16
aI20
asS'smug'
p903
(lp904
I15
asS'knocks'
p905
(lp906
I3
asS'happiest'
p907
(lp908
I16
asS'learned'
p909
(lp910
I20
asS'enrobe'
p911
(lp912
I2
asS'bar'
p913
(lp914
I6
aI11
aI16
asS'fields'
p915
(lp916
I5
asS'bay'
p917
(lp918
I10
asS'bag'
p919
(lp920
I2
aI12
asS'bad'
p921
(lp922
I3
aI15
aI22
asS'stead'
p923
(lp924
I4
aI20
asS'steal'
p925
(lp926
I4
aI5
aI16
aI22
asS'scrubbed'
p927
(lp928
I22
asS'ears'
p929
(lp930
I2
aI9
aI22
asS'headed'
p931
(lp932
I2
asS'penance'
p933
(lp934
I20
asS'howso'
p935
(lp936
I19
asS'fair'
p937
(lp938
I2
aI3
aI4
aI5
aI8
aI10
aI11
aI12
aI16
aI18
aI20
aI21
aI22
asS'habit'
p939
(lp940
I3
aI6
aI18
asS'wrest'
p941
(lp942
I20
asS'gentile'
p943
(lp944
I10
asS'magnificoes'
p945
(lp946
I1
aI16
aI20
asS'depends'
p947
(lp948
I20
asS'damnation'
p949
(lp950
I11
asS'hagar'
p951
(lp952
I9
asS'best'
p953
(lp954
I3
aI5
aI6
aI12
aI16
aI19
aI22
asS'subject'
p955
(lp956
I15
aI22
asS'said'
p957
(lp958
I4
aI13
asS'draws'
p959
(lp960
I16
asS'temptation'
p961
(lp962
I3
asS'gaberdine'
p963
(lp964
I4
asS'away'
p965
(lp966
I6
aI8
aI10
aI13
aI15
aI16
aI18
aI20
aI21
aI22
asS'sail'
p967
(lp968
I2
aI10
aI12
asS'gentleman'
p969
(lp970
I6
aI12
aI16
aI18
aI20
asS'continent'
p971
(lp972
I1
aI16
asS'tainted'
p973
(lp974
I16
aI20
asS'finger'
p975
(lp976
I6
aI16
aI22
asS'scorn'
p977
(lp978
I6
asS'bellowing'
p979
(lp980
I22
asS'approach'
p981
(lp982
I3
aI10
asS'discovery'
p983
(lp984
I10
asS'we'
p985
(lp986
I2
aI3
aI4
aI6
aI8
aI10
aI11
aI12
aI15
aI16
aI18
aI19
aI20
aI21
aI22
asS'never'
p987
(lp988
I2
aI3
aI4
aI5
aI6
aI8
aI9
aI11
aI12
aI13
aI15
aI16
aI17
aI18
aI19
aI20
aI22
asS'terms'
p989
(lp990
I4
aI5
aI6
aI22
asS'bargains'
p991
(lp992
I4
aI15
asS'extend'
p993
(lp994
I4
aI11
asS'nature'
p995
(lp996
I2
aI16
aI20
aI22
asS'wo'
p997
(lp998
I22
asS'confusion'
p999
(lp1000
I16
asS'weak'
p1001
(lp1002
I11
asS'stealing'
p1003
(lp1004
I22
asS'twinkling'
p1005
(lp1006
I6
asS'wear'
p1007
(lp1008
I6
aI13
aI16
aI18
aI20
aI22
asS'unfold'
p1009
(lp1010
I13
asS'torturer'
p1011
(lp1012
I16
asS'news'
p1013
(lp1014
I3
aI4
aI6
aI8
aI15
aI16
aI22
asS'debt'
p1015
(lp1016
I16
aI17
aI20
asS'burning'
p1017
(lp1018
I22
asS'pity'
p1019
(lp1020
I6
aI20
asS'hours'
p1021
(lp1022
I8
aI18
aI22
asS'accident'
p1023
(lp1024
I22
asS'excrement'
p1025
(lp1026
I16
asS'country'
p1027
(lp1028
I12
asS'ill'
p1029
(lp1030
I9
aI15
asS'estimable'
p1031
(lp1032
I4
asS'strange'
p1033
(lp1034
I2
aI12
aI20
aI22
asS'against'
p1035
(lp1036
I17
aI20
asS'estates'
p1037
(lp1038
I13
asS'tediousness'
p1039
(lp1040
I7
asS'conceits'
p1041
(lp1042
I19
asS'faces'
p1043
(lp1044
I9
asS'conceiving'
p1045
(lp1046
I4
asS'groans'
p1047
(lp1048
I2
asS'bestows'
p1049
(lp1050
I22
asS'royal'
p1051
(lp1052
I16
aI20
asS'height'
p1053
(lp1054
I20
asS'trust'
p1055
(lp1056
I2
aI6
asS'speak'
p1057
(lp1058
I2
aI4
aI5
aI6
aI8
aI15
aI16
aI17
aI18
aI19
aI20
aI21
aI22
asS'brassy'
p1059
(lp1060
I20
asS'petty'
p1061
(lp1062
I2
aI16
asS'beggar'
p1063
(lp1064
I10
aI15
aI20
asS'puts'
p1065
(lp1066
I10
asS'three'
p1067
(lp1068
I3
aI4
aI5
aI6
aI11
aI13
aI16
aI20
aI22
asS'been'
p1069
(lp1070
I3
aI11
aI15
aI16
aI20
aI22
asS'quarrelling'
p1071
(lp1072
I19
asS'twain'
p1073
(lp1074
I16
asS'much'
p1075
(lp1076
I2
aI3
aI4
aI7
aI10
aI11
aI13
aI15
aI16
aI17
aI19
aI20
aI22
asS'villany'
p1077
(lp1078
I15
asS'interest'
p1079
(lp1080
I4
aI16
asS'lovely'
p1081
(lp1082
I10
asS'thrice'
p1083
(lp1084
I4
aI6
aI16
aI20
asS'dry'
p1085
(lp1086
I16
asS'life'
p1087
(lp1088
I6
aI11
aI13
aI16
aI17
aI19
aI20
aI22
asS'beloved'
p1089
(lp1090
I16
asS'spit'
p1091
(lp1092
I4
asS'dismiss'
p1093
(lp1094
I20
asS'wish'
p1095
(lp1096
I12
aI16
aI18
aI20
aI22
asS'signior'
p1097
(lp1098
I2
aI4
aI6
aI10
aI16
asS'moneys'
p1099
(lp1100
I4
asS'chus'
p1101
(lp1102
I16
asS'dote'
p1103
(lp1104
I3
asS'child'
p1105
(lp1106
I6
aI7
aI19
asS'catch'
p1107
(lp1108
I4
aI10
asS'doth'
p1109
(lp1110
I3
aI6
aI9
aI10
aI13
aI16
aI18
aI20
aI21
aI22
asS'gracious'
p1111
(lp1112
I16
aI20
asS'tonight'
p1113
(lp1114
I8
asS'save'
p1115
(lp1116
I16
aI20
asS'twelvemonth'
p1117
(lp1118
I18
asS'air'
p1119
(lp1120
I16
aI22
asS'aim'
p1121
(lp1122
I2
asS'ugly'
p1123
(lp1124
I16
asS'near'
p1125
(lp1126
I4
aI5
aI16
aI18
aI22
asS'insculp'
p1127
(lp1128
I11
asS'neat'
p1129
(lp1130
I2
asS'viii'
p1131
(lp1132
I12
asS'voice'
p1133
(lp1134
I6
aI16
aI18
aI20
aI22
asS'rent'
p1135
(lp1136
I10
asS'ix'
p1137
(lp1138
I13
asS'seven'
p1139
(lp1140
I13
asS'mexico'
p1141
(lp1142
I4
aI16
asS'is'
p1143
(lp1144
I2
aI3
aI4
aI5
aI6
aI7
aI8
aI9
aI10
aI11
aI12
aI13
aI15
aI16
aI17
aI18
aI19
aI20
aI22
asS'it'
p1145
(lp1146
I2
aI3
aI4
aI5
aI6
aI7
aI8
aI9
aI10
aI11
aI12
aI13
aI15
aI16
aI17
aI18
aI19
aI20
aI21
aI22
asS'sting'
p1147
(lp1148
I20
asS'iv'
p1149
(lp1150
I8
aI18
aI20
aI21
asS'ii'
p1151
(lp1152
I3
aI5
aI6
aI7
aI8
aI9
aI10
aI11
aI12
aI13
aI16
aI21
asS'skipping'
p1153
(lp1154
I6
asS'writes'
p1155
(lp1156
I20
asS'jest'
p1157
(lp1158
I2
asS'hebrew'
p1159
(lp1160
I4
asS'troilus'
p1161
(lp1162
I22
asS'trusted'
p1163
(lp1164
I2
aI22
asS'if'
p1165
(lp1166
I2
aI3
aI4
aI5
aI6
aI7
aI8
aI9
aI10
aI11
aI13
aI15
aI16
aI17
aI18
aI19
aI20
aI21
aI22
asS'wooing'
p1167
(lp1168
I16
asS'perform'
p1169
(lp1170
I3
asS'things'
p1171
(lp1172
I6
aI10
aI13
aI18
aI19
aI20
aI22
asS'make'
p1173
(lp1174
I2
aI3
aI4
aI5
aI10
aI11
aI12
aI15
aI16
aI20
aI21
aI22
asS'custom'
p1175
(lp1176
I4
aI20
asS'wound'
p1177
(lp1178
I16
asS'who'
p1179
(lp1180
I2
aI3
aI4
aI5
aI6
aI7
aI9
aI10
aI11
aI12
aI13
aI15
aI16
aI20
aI22
asS'outface'
p1181
(lp1182
I21
asS'descend'
p1183
(lp1184
I10
asS'monarch'
p1185
(lp1186
I16
aI20
asS'several'
p1187
(lp1188
I11
asS'grows'
p1189
(lp1190
I3
aI4
aI6
asS'fairly'
p1191
(lp1192
I2
aI16
asS'sayings'
p1193
(lp1194
I6
asS'pick'
p1195
(lp1196
I13
asS'hang'
p1197
(lp1198
I2
aI20
asS'evil'
p1199
(lp1200
I4
aI16
asS'hand'
p1201
(lp1202
I4
aI5
aI6
aI8
aI11
aI12
aI13
aI16
aI18
aI20
aI22
asS'delight'
p1203
(lp1204
I10
aI12
asS'kin'
p1205
(lp1206
I13
asS'supper'
p1207
(lp1208
I6
aI7
aI8
aI9
asS'jealous'
p1209
(lp1210
I19
asS'thoughts'
p1211
(lp1212
I4
aI5
aI10
aI12
aI16
aI18
asS'narrow'
p1213
(lp1214
I12
aI15
asS'shortly'
p1215
(lp1216
I19
asS'whereby'
p1217
(lp1218
I20
asS'thy'
p1219
(lp1220
I3
aI4
aI6
aI7
aI9
aI10
aI11
aI13
aI15
aI16
aI19
aI20
asS'awaked'
p1221
(lp1222
I22
asS'monkeys'
p1223
(lp1224
I15
asS'ocean'
p1225
(lp1226
I2
asS'ragged'
p1227
(lp1228
I10
asS'stillness'
p1229
(lp1230
I2
aI22
asS'rome'
p1231
(lp1232
I20
asS'impediment'
p1233
(lp1234
I20
asS'greatest'
p1235
(lp1236
I16
asS'qualities'
p1237
(lp1238
I11
asS'mother'
p1239
(lp1240
I3
aI4
aI6
aI19
asS'impertinent'
p1241
(lp1242
I6
asS'hearts'
p1243
(lp1244
I16
aI20
asS'the'
p1245
(lp1246
I1
aI2
aI3
aI4
aI5
aI6
aI7
aI8
aI9
aI10
aI11
aI12
aI13
aI14
aI15
aI16
aI17
aI18
aI19
aI20
aI21
aI22
asS'yours'
p1247
(lp1248
I2
aI10
aI11
aI16
aI20
aI22
asS'left'
p1249
(lp1250
I2
aI4
aI6
aI20
aI22
asS'sleeps'
p1251
(lp1252
I9
aI22
asS'neighing'
p1253
(lp1254
I22
asS'yea'
p1255
(lp1256
I5
aI20
asS'gods'
p1257
(lp1258
I19
asS'mending'
p1259
(lp1260
I22
asS'swearing'
p1261
(lp1262
I21
asS'beset'
p1263
(lp1264
I22
asS'disguise'
p1265
(lp1266
I8
asS'hark'
p1267
(lp1268
I22
asS'spurrer'
p1269
(lp1270
I13
asS'thanks'
p1271
(lp1272
I2
aI20
asS'human'
p1273
(lp1274
I20
asS'followed'
p1275
(lp1276
I3
asS'yes'
p1277
(lp1278
I3
aI4
aI15
aI16
aI19
aI20
asS'yet'
p1279
(lp1280
I3
aI4
aI5
aI6
aI8
aI9
aI11
aI12
aI13
aI15
aI16
aI17
aI18
aI19
aI20
aI22
asS'forfeiture'
p1281
(lp1282
I4
aI16
aI17
aI20
asS'infinitely'
p1283
(lp1284
I22
asS'regarded'
p1285
(lp1286
I5
asS'had'
p1287
(lp1288
I2
aI3
aI4
aI5
aI6
aI11
aI15
aI16
aI18
aI20
aI22
asS'ewes'
p1289
(lp1290
I4
asS'shout'
p1291
(lp1292
I16
asS'transformed'
p1293
(lp1294
I10
asS'easy'
p1295
(lp1296
I2
aI3
asS'wiving'
p1297
(lp1298
I13
asS'has'
p1299
(lp1300
I6
asS'hat'
p1301
(lp1302
I6
asS'gave'
p1303
(lp1304
I22
asS'turquoise'
p1305
(lp1306
I15
asS'mocked'
p1307
(lp1308
I15
asS'dignity'
p1309
(lp1310
I13
asS'sailors'
p1311
(lp1312
I4
aI15
asS'gormandise'
p1313
(lp1314
I9
asS'possible'
p1315
(lp1316
I4
asS'ope'
p1317
(lp1318
I2
aI16
asS'mocker'
p1319
(lp1320
I3
asS'birth'
p1321
(lp1322
I11
asS'judge'
p1323
(lp1324
I9
aI10
aI13
aI15
aI20
aI22
asS'shadow'
p1325
(lp1326
I3
aI5
aI13
aI16
aI22
asS'scruple'
p1327
(lp1328
I20
asS'desire'
p1329
(lp1330
I4
aI6
aI10
aI11
aI13
aI18
aI20
asS'brought'
p1331
(lp1332
I6
asS'gift'
p1333
(lp1334
I20
aI22
asS'virgins'
p1335
(lp1336
I5
asS'zeal'
p1337
(lp1338
I22
asS'prouder'
p1339
(lp1340
I18
asS'prating'
p1341
(lp1342
I22
asS'slavish'
p1343
(lp1344
I20
asS'offices'
p1345
(lp1346
I13
aI20
asS'officer'
p1347
(lp1348
I15
asS'night'
p1349
(lp1350
I3
aI6
aI8
aI9
aI10
aI15
aI16
aI20
aI21
aI22
asS'pillar'
p1351
(lp1352
I20
asS'cooled'
p1353
(lp1354
I15
asS'right'
p1355
(lp1356
I3
aI5
aI6
aI9
aI11
aI13
aI16
aI20
aI22
asS'old'
p1357
(lp1358
I1
aI2
aI3
aI6
aI8
aI9
aI11
aI15
aI16
aI20
aI21
aI22
asS'deal'
p1359
(lp1360
I2
asS'people'
p1361
(lp1362
I16
aI18
aI22
asS'flatter'
p1363
(lp1364
I9
asS'crown'
p1365
(lp1366
I20
asS'burghers'
p1367
(lp1368
I2
asS'dead'
p1369
(lp1370
I3
aI6
aI15
aI16
asS'chests'
p1371
(lp1372
I3
asS'born'
p1373
(lp1374
I2
aI5
asS'election'
p1375
(lp1376
I13
aI16
asS'displeasure'
p1377
(lp1378
I22
asS'dear'
p1379
(lp1380
I2
aI16
aI18
aI19
aI20
aI22
asS'pain'
p1381
(lp1382
I6
asS'indirect'
p1383
(lp1384
I20
asS'manifest'
p1385
(lp1386
I20
asS'creep'
p1387
(lp1388
I2
aI16
aI22
asS'enemies'
p1389
(lp1390
I15
asS'proceeding'
p1391
(lp1392
I20
asS'for'
p1393
(lp1394
I2
aI3
aI4
aI5
aI6
aI7
aI8
aI9
aI10
aI11
aI12
aI13
aI15
aI16
aI17
aI18
aI19
aI20
aI21
aI22
asS'bottom'
p1395
(lp1396
I2
asS'companions'
p1397
(lp1398
I18
asS'comments'
p1399
(lp1400
I16
asS'betimes'
p1401
(lp1402
I15
asS'drudge'
p1403
(lp1404
I16
asS'steps'
p1405
(lp1406
I18
asS'price'
p1407
(lp1408
I19
asS'cord'
p1409
(lp1410
I20
asS'exeunt'
p1411
(lp1412
I2
aI3
aI4
aI5
aI6
aI8
aI10
aI11
aI12
aI13
aI15
aI16
aI17
aI18
aI19
aI20
aI21
aI22
asS'knew'
p1413
(lp1414
I15
aI18
aI20
aI22
asS'bold'
p1415
(lp1416
I6
aI11
aI16
asS'peel'
p1417
(lp1418
I4
asS'unkind'
p1419
(lp1420
I22
asS'yoke'
p1421
(lp1422
I18
asS'posy'
p1423
(lp1424
I22
asS'losing'
p1425
(lp1426
I20
asS'post'
p1427
(lp1428
I6
aI13
aI22
asS'caskets'
p1429
(lp1430
I3
aI5
aI11
aI13
aI16
asS'proceed'
p1431
(lp1432
I20
asS'wept'
p1433
(lp1434
I15
asS'chaff'
p1435
(lp1436
I2
aI13
asS'cherubins'
p1437
(lp1438
I22
asS'impenetrable'
p1439
(lp1440
I17
asS'ribs'
p1441
(lp1442
I2
aI6
aI10
asS'months'
p1443
(lp1444
I4
asS'o'
p1445
(lp1446
I2
aI3
aI4
aI6
aI7
aI8
aI9
aI10
aI11
aI12
aI13
aI15
aI16
aI19
aI20
aI21
aI22
asS'dinner'
p1447
(lp1448
I2
aI5
aI19
aI20
aI21
asS'despair'
p1449
(lp1450
I16
asS'afternoon'
p1451
(lp1452
I3
aI9
asS'own'
p1453
(lp1454
I2
aI3
aI4
aI6
aI15
aI16
aI18
aI20
aI22
asS'commit'
p1455
(lp1456
I10
aI18
asS'slightly'
p1457
(lp1458
I22
asS'clamber'
p1459
(lp1460
I9
asS'treble'
p1461
(lp1462
I16
asS'duke'
p1463
(lp1464
I1
aI3
aI12
aI16
aI17
aI20
asS'raised'
p1465
(lp1466
I12
asS'faint'
p1467
(lp1468
I2
asS'visages'
p1469
(lp1470
I2
aI16
asS'formerly'
p1471
(lp1472
I20
asS'presence'
p1473
(lp1474
I16
aI18
asS'civil'
p1475
(lp1476
I22
asS'pays'
p1477
(lp1478
I20
asS'nought'
p1479
(lp1480
I22
asS'bound'
p1481
(lp1482
I4
aI20
aI22
asS'son'
p1483
(lp1484
I6
aI20
asS'down'
p1485
(lp1486
I4
aI6
aI10
aI15
aI16
aI20
asS'lies'
p1487
(lp1488
I11
aI16
aI18
aI20
asS'lieu'
p1489
(lp1490
I20
aI22
asS'lewd'
p1491
(lp1492
I18
asS'unseal'
p1493
(lp1494
I22
asS'wag'
p1495
(lp1496
I20
asS'suffice'
p1497
(lp1498
I20
asS'jealousy'
p1499
(lp1500
I16
asS'fight'
p1501
(lp1502
I16
asS'stuck'
p1503
(lp1504
I4
aI22
asS'way'
p1505
(lp1506
I2
aI4
aI5
aI6
aI13
aI16
aI22
asS'greatness'
p1507
(lp1508
I20
asS'music'
p1509
(lp1510
I16
aI22
asS'conspired'
p1511
(lp1512
I9
asS'was'
p1513
(lp1514
I3
aI4
aI6
aI8
aI9
aI11
aI12
aI13
aI15
aI16
aI19
aI20
aI22
asS'happy'
p1515
(lp1516
I16
aI18
aI22
asS'starve'
p1517
(lp1518
I3
asS'head'
p1519
(lp1520
I3
aI6
aI9
aI11
aI13
aI15
aI16
aI17
aI20
asS'form'
p1521
(lp1522
I11
asS'offer'
p1523
(lp1524
I3
aI4
aI6
aI20
asS'visitation'
p1525
(lp1526
I20
asS'converse'
p1527
(lp1528
I3
aI18
asS'fore'
p1529
(lp1530
I13
asS'heinous'
p1531
(lp1532
I7
asS'garments'
p1533
(lp1534
I18
asS'heat'
p1535
(lp1536
I2
aI11
asS'uncle'
p1537
(lp1538
I4
asS'true'
p1539
(lp1540
I3
aI6
aI10
aI13
aI15
aI16
aI18
aI20
aI22
asS'continuance'
p1541
(lp1542
I2
asS'sponge'
p1543
(lp1544
I3
asS'counsel'
p1545
(lp1546
I3
aI6
asS'dowry'
p1547
(lp1548
I16
asS'builds'
p1549
(lp1550
I13
asS'braver'
p1551
(lp1552
I18
asS'harmony'
p1553
(lp1554
I22
asS'bids'
p1555
(lp1556
I6
aI9
asS'bargain'
p1557
(lp1558
I16
asS'until'
p1559
(lp1560
I16
aI18
aI22
asS'twixt'
p1561
(lp1562
I16
asS'erlook'
p1563
(lp1564
I16
asS'perchance'
p1565
(lp1566
I22
asS'lays'
p1567
(lp1568
I18
asS'rialto'
p1569
(lp1570
I4
aI15
asS'brightly'
p1571
(lp1572
I22
asS'inscroll'
p1573
(lp1574
I11
asS'gather'
p1575
(lp1576
I22
asS'liberal'
p1577
(lp1578
I6
aI20
aI22
asS'lately'
p1579
(lp1580
I20
asS'fury'
p1581
(lp1582
I20
asS'sinful'
p1583
(lp1584
I11
asS'meagre'
p1585
(lp1586
I16
asS'howling'
p1587
(lp1588
I16
asS'promised'
p1589
(lp1590
I2
asS'prayer'
p1591
(lp1592
I6
aI15
aI18
aI20
asS'awhile'
p1593
(lp1594
I2
aI16
asS'widows'
p1595
(lp1596
I6
aI16
asS'cerecloth'
p1597
(lp1598
I11
asS'holy'
p1599
(lp1600
I2
aI3
aI4
aI20
aI22
asS'no'
p1601
(lp1602
I2
aI3
aI4
aI6
aI9
aI10
aI11
aI13
aI15
aI16
aI17
aI18
aI19
aI20
aI22
asS'stake'
p1603
(lp1604
I16
asS'tossing'
p1605
(lp1606
I2
asS'ne'
p1607
(lp1608
I6
aI16
aI22
asS'blesseth'
p1609
(lp1610
I20
asS'tis'
p1611
(lp1612
I2
aI4
aI8
aI10
aI16
aI20
aI22
asS'flood'
p1613
(lp1614
I2
aI20
asS'shrine'
p1615
(lp1616
I11
asS'ambitious'
p1617
(lp1618
I11
aI16
asS'smell'
p1619
(lp1620
I4
asS'rails'
p1621
(lp1622
I4
asS'cureless'
p1623
(lp1624
I20
asS'picture'
p1625
(lp1626
I3
aI11
asS'brothers'
p1627
(lp1628
I2
asS'delivered'
p1629
(lp1630
I6
asS'dies'
p1631
(lp1632
I16
aI20
aI22
asS'slink'
p1633
(lp1634
I8
asS'felt'
p1635
(lp1636
I15
asS'extremest'
p1637
(lp1638
I2
asS'fell'
p1639
(lp1640
I3
aI9
aI15
aI18
aI20
asS'intent'
p1641
(lp1642
I20
asS'publican'
p1643
(lp1644
I4
asS'gobbo'
p1645
(lp1646
I1
aI6
asS'discharge'
p1647
(lp1648
I16
aI20
asS'died'
p1649
(lp1650
I18
asS'trunks'
p1651
(lp1652
I20
asS'longer'
p1653
(lp1654
I3
aI6
aI20
asS'assume'
p1655
(lp1656
I13
aI16
asS'interval'
p1657
(lp1658
I14
asS'together'
p1659
(lp1660
I9
aI12
aI16
aI18
aI20
asS'beds'
p1661
(lp1662
I20
asS'rough'
p1663
(lp1664
I20
asS'teeth'
p1665
(lp1666
I2
asS'prolixity'
p1667
(lp1668
I15
asS'backward'
p1669
(lp1670
I6
asS'precedent'
p1671
(lp1672
I20
asS'coach'
p1673
(lp1674
I18
asS'customary'
p1675
(lp1676
I18
asS'skip'
p1677
(lp1678
I3
asS'rob'
p1679
(lp1680
I7
asS'excellent'
p1681
(lp1682
I20
asS'peruse'
p1683
(lp1684
I8
asS'souls'
p1685
(lp1686
I18
aI20
aI22
asS'balthasar'
p1687
(lp1688
I1
aI18
aI20
asS'cuckolds'
p1689
(lp1690
I22
asS'milk'
p1691
(lp1692
I16
asS'venice'
p1693
(lp1694
I1
aI2
aI3
aI4
aI5
aI6
aI7
aI8
aI9
aI10
aI11
aI12
aI13
aI15
aI16
aI17
aI18
aI19
aI20
aI21
aI22
asS'touches'
p1695
(lp1696
I22
asS'inland'
p1697
(lp1698
I22
asS'father'
p1699
(lp1700
I1
aI3
aI4
aI5
aI6
aI7
aI8
aI9
aI10
aI19
asS'charge'
p1701
(lp1702
I20
aI22
asS'unpleasant'
p1703
(lp1704
I16
asS'determinations'
p1705
(lp1706
I3
asS'exposition'
p1707
(lp1708
I20
asS'unburden'
p1709
(lp1710
I2
asS'me'
p1711
(lp1712
I2
aI3
aI4
aI5
aI6
aI7
aI8
aI9
aI10
aI11
aI12
aI13
aI15
aI16
aI17
aI18
aI19
aI20
aI21
aI22
asS'deservings'
p1713
(lp1714
I13
aI20
asS'inhuman'
p1715
(lp1716
I20
asS'advantage'
p1717
(lp1718
I4
asS'denied'
p1719
(lp1720
I17
asS'none'
p1721
(lp1722
I3
aI13
aI15
aI16
aI19
aI20
aI22
asS'choice'
p1723
(lp1724
I5
aI11
aI13
aI16
asS'merit'
p1725
(lp1726
I13
asS'advised'
p1727
(lp1728
I2
aI5
aI22
asS'gatories'
p1729
(lp1730
I22
asS'trouble'
p1731
(lp1732
I3
aI16
asS'exact'
p1733
(lp1734
I4
aI20
asS'cool'
p1735
(lp1736
I2
asS'scuse'
p1737
(lp1738
I20
asS'dim'
p1739
(lp1740
I22
asS'level'
p1741
(lp1742
I3
asS'did'
p1743
(lp1744
I2
aI4
aI6
aI7
aI9
aI10
aI12
aI13
aI15
aI16
aI18
aI20
aI21
aI22
asS'die'
p1745
(lp1746
I3
aI5
aI15
aI22
asS'bright'
p1747
(lp1748
I22
asS'leave'
p1749
(lp1750
I2
aI3
aI6
aI7
aI8
aI11
aI13
aI15
aI16
aI20
aI22
asS'enow'
p1751
(lp1752
I19
aI20
asS'quick'
p1753
(lp1754
I13
asS'woven'
p1755
(lp1756
I2
aI16
asS'round'
p1757
(lp1758
I3
aI4
asS'pork'
p1759
(lp1760
I4
aI19
asS'tempts'
p1761
(lp1762
I6
asS'says'
p1763
(lp1764
I6
aI9
aI11
aI13
aI19
aI20
asS'temples'
p1765
(lp1766
I2
asS'masqued'
p1767
(lp1768
I10
asS'sigh'
p1769
(lp1770
I6
aI17
aI22
asS'repents'
p1771
(lp1772
I20
asS'discover'
p1773
(lp1774
I11
asS'sign'
p1775
(lp1776
I16
aI20
aI21
asS'masques'
p1777
(lp1778
I9
asS'wherefore'
p1779
(lp1780
I9
asS'cost'
p1781
(lp1782
I15
aI18
asS'talker'
p1783
(lp1784
I2
asS'patient'
p1785
(lp1786
I4
asS'port'
p1787
(lp1788
I2
aI16
asS'substitute'
p1789
(lp1790
I22
asS'hymn'
p1791
(lp1792
I22
asS'curse'
p1793
(lp1794
I15
asS'appear'
p1795
(lp1796
I6
aI13
aI16
aI20
aI22
asS'chooseth'
p1797
(lp1798
I11
aI13
asS'heaviness'
p1799
(lp1800
I12
asS'favour'
p1801
(lp1802
I4
aI20
asS'current'
p1803
(lp1804
I20
asS'tartars'
p1805
(lp1806
I20
asS'suspect'
p1807
(lp1808
I4
asS'goes'
p1809
(lp1810
I13
aI16
asS'reply'
p1811
(lp1812
I16
asS'falling'
p1813
(lp1814
I9
asS'chanced'
p1815
(lp1816
I22
asS'badge'
p1817
(lp1818
I4
asS'honour'
p1819
(lp1820
I2
aI13
aI16
aI18
aI20
aI22
asS'clerk'
p1821
(lp1822
I1
aI20
aI22
asS'v'
p1823
(lp1824
I9
aI19
aI22
asS'plucking'
p1825
(lp1826
I2
asS'french'
p1827
(lp1828
I3
aI12
asS'water'
p1829
(lp1830
I4
asS'torchbearers'
p1831
(lp1832
I8
asS'entertain'
p1833
(lp1834
I2
asS'twentieth'
p1835
(lp1836
I20
asS'address'
p1837
(lp1838
I13
asS'alone'
p1839
(lp1840
I16
aI17
aI22
asS'along'
p1841
(lp1842
I12
aI16
asS'roaring'
p1843
(lp1844
I2
asS'teaches'
p1845
(lp1846
I4
aI22
asS'appears'
p1847
(lp1848
I4
aI16
aI18
aI20
asS'change'
p1849
(lp1850
I5
aI18
aI20
aI22
asS'wait'
p1851
(lp1852
I10
asS'box'
p1853
(lp1854
I3
asS'boy'
p1855
(lp1856
I6
aI9
aI10
aI16
aI18
aI22
asS'merriment'
p1857
(lp1858
I6
asS'cuckoo'
p1859
(lp1860
I22
asS'expressly'
p1861
(lp1862
I20
asS'shift'
p1863
(lp1864
I3
asS'eke'
p1865
(lp1866
I16
asS'studied'
p1867
(lp1868
I6
asS'guilty'
p1869
(lp1870
I16
asS'bow'
p1871
(lp1872
I16
asS'trial'
p1873
(lp1874
I20
asS'accomplished'
p1875
(lp1876
I18
asS'bon'
p1877
(lp1878
I3
asS'conveniently'
p1879
(lp1880
I12
asS'hither'
p1881
(lp1882
I3
aI16
asS'love'
p1883
(lp1884
I1
aI2
aI3
aI4
aI5
aI8
aI9
aI10
aI11
aI12
aI13
aI16
aI18
aI20
aI22
asS'bloods'
p1885
(lp1886
I15
asS'humour'
p1887
(lp1888
I20
asS'bounds'
p1889
(lp1890
I22
asS'keenness'
p1891
(lp1892
I20
asS'merely'
p1893
(lp1894
I20
asS'bloody'
p1895
(lp1896
I17
aI20
asS'withal'
p1897
(lp1898
I11
aI15
aI16
aI18
aI20
asS'jewess'
p1899
(lp1900
I9
asS'peep'
p1901
(lp1902
I2
asS'sweating'
p1903
(lp1904
I16
asS'wealth'
p1905
(lp1906
I16
aI19
aI20
aI22
asS'prove'
p1907
(lp1908
I3
aI5
aI15
aI16
aI18
asS'sake'
p1909
(lp1910
I2
aI8
aI12
aI20
asS'stoops'
p1911
(lp1912
I11
asS'visit'
p1913
(lp1914
I6
asS'only'
p1915
(lp1916
I2
aI12
aI16
aI18
aI19
aI20
asS'france'
p1917
(lp1918
I3
asS'live'
p1919
(lp1920
I3
aI6
aI16
aI18
aI19
aI20
aI22
asS'prey'
p1921
(lp1922
I5
asS'opposed'
p1923
(lp1924
I13
asS'memory'
p1925
(lp1926
I4
aI19
asS'lorenzo'
p1927
(lp1928
I1
aI2
aI6
aI7
aI8
aI10
aI12
aI16
aI18
aI19
aI20
aI21
aI22
asS'chapels'
p1929
(lp1930
I3
asS'dismay'
p1931
(lp1932
I4
aI16
aI22
asS'apparent'
p1933
(lp1934
I20
asS'drown'
p1935
(lp1936
I7
asS'ignorant'
p1937
(lp1938
I2
asS'virtue'
p1939
(lp1940
I16
aI22
asS'behalf'
p1941
(lp1942
I4
asS'bushels'
p1943
(lp1944
I2
asS'fly'
p1945
(lp1946
I2
aI10
aI20
asS'valued'
p1947
(lp1948
I20
asS'colchos'
p1949
(lp1950
I2
asS'soul'
p1951
(lp1952
I4
aI6
aI10
aI16
aI18
aI20
aI22
asS'cat'
p1953
(lp1954
I9
aI20
asS'wands'
p1955
(lp1956
I4
asS'can'
p1957
(lp1958
I2
aI3
aI4
aI6
aI10
aI15
aI16
aI18
aI19
aI20
aI21
asS'following'
p1959
(lp1960
I4
asS'making'
p1961
(lp1962
I2
aI6
aI16
aI19
asS'vailing'
p1963
(lp1964
I2
asS'laughter'
p1965
(lp1966
I2
asS'deceased'
p1967
(lp1968
I6
asS'streak'
p1969
(lp1970
I4
asS'heart'
p1971
(lp1972
I2
aI3
aI4
aI5
aI6
aI11
aI13
aI15
aI16
aI18
aI20
aI22
asS'figure'
p1973
(lp1974
I11
asS'baned'
p1975
(lp1976
I20
asS'attribute'
p1977
(lp1978
I20
asS'sense'
p1979
(lp1980
I22
asS'confused'
p1981
(lp1982
I12
asS'heard'
p1983
(lp1984
I4
aI11
aI12
aI15
aI16
aI20
aI22
asS'fortunes'
p1985
(lp1986
I2
aI3
aI11
aI13
asS'chin'
p1987
(lp1988
I6
asS'sharp'
p1989
(lp1990
I20
asS'unhandled'
p1991
(lp1992
I22
asS'stole'
p1993
(lp1994
I20
asS'bankrupt'
p1995
(lp1996
I15
aI20
asS'begg'
p1997
(lp1998
I22
asS'divided'
p1999
(lp2000
I16
asS'bonds'
p2001
(lp2002
I10
asS'write'
p2003
(lp2004
I20
asS'till'
p2005
(lp2006
I2
aI6
aI15
aI16
aI18
aI20
aI22
asS'fourth'
p2007
(lp2008
I4
asS'swore'
p2009
(lp2010
I2
aI3
aI22
asS'gaping'
p2011
(lp2012
I16
aI20
asS'speaks'
p2013
(lp2014
I2
aI16
asS'sworn'
p2015
(lp2016
I6
aI17
aI20
aI22
asS'undertook'
p2017
(lp2018
I8
asS'mar'
p2019
(lp2020
I22
asS'may'
p2021
(lp2022
I2
aI3
aI4
aI5
aI6
aI8
aI11
aI12
aI13
aI15
aI16
aI19
aI20
asS'sacrifice'
p2023
(lp2024
I16
aI20
asS'use'
p2025
(lp2026
I4
aI6
aI16
aI18
aI20
asS'rites'
p2027
(lp2028
I13
asS'respective'
p2029
(lp2030
I22
asS'mad'
p2031
(lp2032
I20
aI22
asS'noise'
p2033
(lp2034
I20
aI22
asS'such'
p2035
(lp2036
I2
aI3
aI4
aI6
aI12
aI13
aI16
aI18
aI19
aI20
aI22
asS'flourish'
p2037
(lp2038
I5
aI11
aI13
aI16
asS'grow'
p2039
(lp2040
I2
aI6
aI16
aI19
asS'man'
p2041
(lp2042
I2
aI3
aI4
aI5
aI6
aI11
aI12
aI16
aI18
aI19
aI20
aI22
asS'branches'
p2043
(lp2044
I6
asS'remember'
p2045
(lp2046
I3
aI12
asS'commodity'
p2047
(lp2048
I2
aI17
asS'candles'
p2049
(lp2050
I22
asS'st'
p2051
(lp2052
I2
aI5
aI6
aI11
aI13
aI16
aI19
aI20
aI22
asS'tale'
p2053
(lp2054
I20
asS'cannot'
p2055
(lp2056
I3
aI4
aI6
aI10
aI15
aI17
aI20
aI21
aI22
asS'so'
p2057
(lp2058
I2
aI3
aI4
aI5
aI6
aI7
aI8
aI9
aI10
aI11
aI12
aI13
aI15
aI16
aI17
aI18
aI19
aI20
aI21
aI22
asS'glancing'
p2059
(lp2060
I20
asS'launcelot'
p2061
(lp2062
I1
aI6
aI7
aI8
aI9
aI19
aI22
asS'tall'
p2063
(lp2064
I15
asS'usances'
p2065
(lp2066
I4
asS'talk'
p2067
(lp2068
I3
aI4
aI6
aI7
aI15
aI19
aI22
asS'perfection'
p2069
(lp2070
I22
asS'serving'
p2071
(lp2072
I3
asS'furnished'
p2073
(lp2074
I20
asS'undervalued'
p2075
(lp2076
I2
aI11
asS'indeed'
p2077
(lp2078
I3
aI6
aI10
aI11
aI16
aI19
aI22
asS'forfeit'
p2079
(lp2080
I4
aI15
aI16
aI20
aI22
asS'bate'
p2081
(lp2082
I20
asS'years'
p2083
(lp2084
I2
aI15
aI20
asS'fangs'
p2085
(lp2086
I17
asS'brain'
p2087
(lp2088
I3
asS'motions'
p2089
(lp2090
I22
asS'tubal'
p2091
(lp2092
I1
aI4
aI15
aI16
asS'cold'
p2093
(lp2094
I3
aI6
aI11
asS'still'
p2095
(lp2096
I2
aI4
aI13
aI16
aI18
aI20
aI22
asS'worship'
p2097
(lp2098
I4
aI6
aI9
asS'scale'
p2099
(lp2100
I20
asS'trifle'
p2101
(lp2102
I6
aI20
asS'outbrave'
p2103
(lp2104
I5
asS'frutify'
p2105
(lp2106
I6
asS'thank'
p2107
(lp2108
I2
aI5
aI15
aI16
aI18
aI20
aI22
asS'faults'
p2109
(lp2110
I6
asS'willow'
p2111
(lp2112
I22
asS'mantle'
p2113
(lp2114
I2
asS'maid'
p2115
(lp2116
I1
aI2
aI13
aI16
aI22
asS'window'
p2117
(lp2118
I9
asS'offers'
p2119
(lp2120
I20
asS'jasons'
p2121
(lp2122
I2
aI16
asS'ours'
p2123
(lp2124
I6
aI20
asS'troubled'
p2125
(lp2126
I20
asS'instantly'
p2127
(lp2128
I4
aI13
asS'salarino'
p2129
(lp2130
I1
aI2
aI8
aI10
aI12
aI15
aI17
asS'thaws'
p2131
(lp2132
I5
asS'christening'
p2133
(lp2134
I20
asS'sooner'
p2135
(lp2136
I3
asS'nation'
p2137
(lp2138
I4
aI15
asS'touching'
p2139
(lp2140
I2
asS'course'
p2141
(lp2142
I17
aI20
asS'tucket'
p2143
(lp2144
I22
asS'wealthy'
p2145
(lp2146
I2
aI4
aI22
asS'not'
p2147
(lp2148
I2
aI3
aI4
aI5
aI6
aI7
aI8
aI9
aI10
aI11
aI12
aI13
aI15
aI16
aI17
aI18
aI19
aI20
aI22
asS'courtship'
p2149
(lp2150
I12
asS'now'
p2151
(lp2152
I2
aI3
aI4
aI6
aI8
aI10
aI11
aI13
aI15
aI16
aI18
aI19
aI20
aI22
asS'killed'
p2153
(lp2154
I18
asS'nor'
p2155
(lp2156
I2
aI3
aI4
aI5
aI9
aI11
aI15
aI16
aI18
aI20
aI22
asS'possess'
p2157
(lp2158
I4
aI20
aI22
asS'wont'
p2159
(lp2160
I9
aI10
aI15
asS'term'
p2161
(lp2162
I16
asS'name'
p2163
(lp2164
I2
aI3
aI6
aI15
aI20
aI22
asS'rendering'
p2165
(lp2166
I20
asS'servant'
p2167
(lp2168
I1
aI3
aI6
aI13
aI15
asS'corners'
p2169
(lp2170
I11
aI19
asS'dido'
p2171
(lp2172
I22
asS'drop'
p2173
(lp2174
I20
aI22
asS'debating'
p2175
(lp2176
I4
asS'beg'
p2177
(lp2178
I20
asS'veins'
p2179
(lp2180
I16
asS'entirely'
p2181
(lp2182
I16
asS'en'
p2183
(lp2184
I13
aI19
aI20
aI21
asS'surfeit'
p2185
(lp2186
I3
aI16
asS'bleat'
p2187
(lp2188
I20
asS'presages'
p2189
(lp2190
I2
asS'torch'
p2191
(lp2192
I8
asS'goose'
p2193
(lp2194
I22
asS'richly'
p2195
(lp2196
I2
aI12
aI22
asS'unlock'
p2197
(lp2198
I2
aI13
asS'persian'
p2199
(lp2200
I5
asS'farewell'
p2201
(lp2202
I2
aI3
aI7
aI9
aI11
aI18
asS'year'
p2203
(lp2204
I2
aI9
asS'aloof'
p2205
(lp2206
I16
asS'girl'
p2207
(lp2208
I9
aI12
aI16
asS'morning'
p2209
(lp2210
I3
aI9
aI16
aI20
aI22
asS'er'
p2211
(lp2212
I3
aI6
aI8
aI11
aI13
aI16
aI19
aI20
aI22
asS'giddy'
p2213
(lp2214
I16
asS'living'
p2215
(lp2216
I3
aI22
asS'beauty'
p2217
(lp2218
I16
asS'profit'
p2219
(lp2220
I9
aI17
asS'furthermore'
p2221
(lp2222
I21
asS'abide'
p2223
(lp2224
I18
aI20
asS'bless'
p2225
(lp2226
I6
aI16
asS'grecian'
p2227
(lp2228
I22
asS'sonties'
p2229
(lp2230
I6
asS'shows'
p2231
(lp2232
I11
aI16
aI20
asS'sings'
p2233
(lp2234
I20
aI22
asS'attended'
p2235
(lp2236
I18
aI22
asS'monster'
p2237
(lp2238
I16
asS'worthiness'
p2239
(lp2240
I22
asS'kings'
p2241
(lp2242
I20
asS'million'
p2243
(lp2244
I15
asS'quite'
p2245
(lp2246
I22
asS'advantages'
p2247
(lp2248
I11
asS'rebel'
p2249
(lp2250
I15
asS'plea'
p2251
(lp2252
I16
aI20
asS'notary'
p2253
(lp2254
I4
asS'orb'
p2255
(lp2256
I22
asS'inevitable'
p2257
(lp2258
I20
asS'care'
p2259
(lp2260
I2
aI17
asS'contemplation'
p2261
(lp2262
I18
asS'goest'
p2263
(lp2264
I8
asS'contented'
p2265
(lp2266
I20
asS'honest'
p2267
(lp2268
I6
aI15
aI18
aI19
asS'motion'
p2269
(lp2270
I16
aI22
asS'turn'
p2271
(lp2272
I4
aI5
aI6
aI15
aI16
aI18
aI19
aI20
aI22
asS'thine'
p2273
(lp2274
I2
aI4
aI20
aI22
asS'palaces'
p2275
(lp2276
I3
asS'aboard'
p2277
(lp2278
I10
asS'sufferance'
p2279
(lp2280
I4
aI15
asS'view'
p2281
(lp2282
I11
aI16
aI20
asS'discontinued'
p2283
(lp2284
I18
asS'pleaseth'
p2285
(lp2286
I4
asS'first'
p2287
(lp2288
I2
aI3
aI5
aI10
aI11
aI13
aI16
aI19
aI20
aI22
asS'blind'
p2289
(lp2290
I5
aI6
aI10
aI22
asS'feign'
p2291
(lp2292
I22
asS'saving'
p2293
(lp2294
I6
asS'nazarite'
p2295
(lp2296
I4
asS'mayst'
p2297
(lp2298
I4
aI20
aI21
asS'yourself'
p2299
(lp2300
I2
aI5
aI16
asS'fast'
p2301
(lp2302
I4
aI9
aI10
aI22
asS'directly'
p2303
(lp2304
I4
aI20
asS'habitation'
p2305
(lp2306
I4
asS'carry'
p2307
(lp2308
I20
asS'impossible'
p2309
(lp2310
I16
asS'ring'
p2311
(lp2312
I15
aI16
aI20
aI21
aI22
asS'fourscore'
p2313
(lp2314
I15
asS'open'
p2315
(lp2316
I20
asS'sheep'
p2317
(lp2318
I4
asS'city'
p2319
(lp2320
I17
aI20
asS'little'
p2321
(lp2322
I3
aI18
aI20
aI22
asS'virgin'
p2323
(lp2324
I11
aI16
asS'caught'
p2325
(lp2326
I2
asS'breed'
p2327
(lp2328
I4
asS'cooling'
p2329
(lp2330
I2
asS'bounty'
p2331
(lp2332
I18
asS'begotten'
p2333
(lp2334
I6
asS'white'
p2335
(lp2336
I3
aI16
asS'cite'
p2337
(lp2338
I4
asS'speaking'
p2339
(lp2340
I17
asS'gives'
p2341
(lp2342
I6
aI16
aI20
asS'hue'
p2343
(lp2344
I5
aI11
asS'eyes'
p2345
(lp2346
I2
aI3
aI5
aI6
aI9
aI10
aI15
aI16
aI22
asS'that'
p2347
(lp2348
I2
aI3
aI4
aI5
aI6
aI8
aI9
aI10
aI11
aI12
aI13
aI15
aI16
aI17
aI18
aI19
aI20
aI21
aI22
asS'season'
p2349
(lp2350
I20
aI22
asS'alas'
p2351
(lp2352
I3
aI5
aI6
aI20
asS'eyed'
p2353
(lp2354
I16
aI17
aI22
asS'representing'
p2355
(lp2356
I14
asS'than'
p2357
(lp2358
I2
aI3
aI6
aI8
aI9
aI10
aI11
aI13
aI15
aI16
aI18
aI19
aI20
aI22
asS'specify'
p2359
(lp2360
I6
asS'wide'
p2361
(lp2362
I2
aI11
asS'advisedly'
p2363
(lp2364
I22
asS'wert'
p2365
(lp2366
I18
asS'rival'
p2367
(lp2368
I2
asS'accused'
p2369
(lp2370
I20
asS'venture'
p2371
(lp2372
I2
aI4
aI16
asS'were'
p2373
(lp2374
I2
aI3
aI4
aI6
aI9
aI11
aI12
aI13
aI15
aI19
aI20
aI22
asS'oath'
p2375
(lp2376
I13
aI17
aI20
aI22
asS'damned'
p2377
(lp2378
I15
aI16
aI19
asS'commends'
p2379
(lp2380
I13
aI16
asS'and'
p2381
(lp2382
I1
aI2
aI3
aI4
aI5
aI6
aI7
aI8
aI9
aI10
aI11
aI12
aI13
aI15
aI16
aI17
aI18
aI19
aI20
aI21
aI22
asS'mountain'
p2383
(lp2384
I20
asS'rend'
p2385
(lp2386
I9
asS'angel'
p2387
(lp2388
I11
aI22
asS'turned'
p2389
(lp2390
I4
aI20
asS'jewels'
p2391
(lp2392
I8
aI12
aI15
asS'sad'
p2393
(lp2394
I2
aI6
asS'say'
p2395
(lp2396
I2
aI3
aI4
aI6
aI9
aI13
aI15
aI16
aI19
aI20
aI22
asS'mates'
p2397
(lp2398
I10
asS'buried'
p2399
(lp2400
I15
asS'saw'
p2401
(lp2402
I6
aI12
aI16
aI22
asS'any'
p2403
(lp2404
I2
aI3
aI4
aI5
aI6
aI13
aI15
aI16
aI18
aI19
aI20
aI22
asS'treasons'
p2405
(lp2406
I22
asS'aside'
p2407
(lp2408
I4
aI6
aI11
aI16
aI20
aI21
aI22
asS'note'
p2409
(lp2410
I4
aI16
aI22
asS'wretch'
p2411
(lp2412
I20
asS'take'
p2413
(lp2414
I2
aI3
aI4
aI5
aI6
aI8
aI11
aI13
aI15
aI16
aI18
aI20
aI22
asS'interior'
p2415
(lp2416
I13
asS'green'
p2417
(lp2418
I16
asS'temporal'
p2419
(lp2420
I20
asS'blunt'
p2421
(lp2422
I11
asS'dread'
p2423
(lp2424
I20
asS'urge'
p2425
(lp2426
I2
aI22
asS'begin'
p2427
(lp2428
I16
asS'sure'
p2429
(lp2430
I2
aI6
aI12
aI15
aI16
aI17
aI22
asS'prick'
p2431
(lp2432
I15
asS'bleared'
p2433
(lp2434
I16
asS'midas'
p2435
(lp2436
I16
asS'paid'
p2437
(lp2438
I16
aI20
asS'falls'
p2439
(lp2440
I3
aI16
asS'stickest'
p2441
(lp2442
I15
asS'cleared'
p2443
(lp2444
I16
asS'inserted'
p2445
(lp2446
I4
asS'brutus'
p2447
(lp2448
I2
asS'destiny'
p2449
(lp2450
I5
aI13
asS'turks'
p2451
(lp2452
I20
asS'medea'
p2453
(lp2454
I22
asS'drive'
p2455
(lp2456
I16
aI20
asS'order'
p2457
(lp2458
I8
aI22
asS'vasty'
p2459
(lp2460
I11
asS'argus'
p2461
(lp2462
I22
asS'slaves'
p2463
(lp2464
I20
asS'axe'
p2465
(lp2466
I20
asS'hear'
p2467
(lp2468
I4
aI6
aI9
aI12
aI15
aI16
aI17
aI18
aI20
aI22
asS'cuckold'
p2469
(lp2470
I22
asS'laws'
p2471
(lp2472
I3
aI20
asS'rating'
p2473
(lp2474
I16
asS'shot'
p2475
(lp2476
I2
asS'show'
p2477
(lp2478
I2
aI3
aI4
aI6
aI13
aI15
aI16
aI18
aI19
aI20
aI21
asS'german'
p2479
(lp2480
I3
asS'supposition'
p2481
(lp2482
I4
asS'hopes'
p2483
(lp2484
I2
aI6
aI13
asS'troy'
p2485
(lp2486
I16
asS'shoe'
p2487
(lp2488
I3
asS'threshold'
p2489
(lp2490
I4
asS'scarce'
p2491
(lp2492
I5
aI6
aI15
asS'imagined'
p2493
(lp2494
I18
asS'fifth'
p2495
(lp2496
I3
asS'ground'
p2497
(lp2498
I6
aI20
asS'slow'
p2499
(lp2500
I9
asS'dice'
p2501
(lp2502
I5
asS'title'
p2503
(lp2504
I1
aI2
aI3
aI4
aI5
aI6
aI7
aI8
aI9
aI10
aI11
aI12
aI13
aI15
aI16
aI17
aI18
aI19
aI20
aI21
aI22
asS'proclamation'
p2505
(lp2506
I20
asS'fulsome'
p2507
(lp2508
I4
asS'treasure'
p2509
(lp2510
I13
asS'proportion'
p2511
(lp2512
I18
asS'outside'
p2513
(lp2514
I4
aI11
asS'prays'
p2515
(lp2516
I22
asS'tears'
p2517
(lp2518
I7
aI12
aI15
asS'black'
p2519
(lp2520
I9
asS'stain'
p2521
(lp2522
I4
asS'godlike'
p2523
(lp2524
I18
asS'guarded'
p2525
(lp2526
I6
asS'get'
p2527
(lp2528
I2
aI6
aI7
aI11
aI13
aI16
aI18
aI19
aI20
aI21
asS'truly'
p2529
(lp2530
I19
asS'whiles'
p2531
(lp2532
I3
asS'loath'
p2533
(lp2534
I9
asS'tailor'
p2535
(lp2536
I15
asS'honours'
p2537
(lp2538
I16
asS'gem'
p2539
(lp2540
I11
asS'beseech'
p2541
(lp2542
I6
aI9
aI16
aI20
asS'floods'
p2543
(lp2544
I22
asS'borrow'
p2545
(lp2546
I4
aI9
asS'yield'
p2547
(lp2548
I5
aI17
aI20
asS'summary'
p2549
(lp2550
I16
asS'carrion'
p2551
(lp2552
I11
aI15
aI20
asS'miles'
p2553
(lp2554
I18
asS'losers'
p2555
(lp2556
I11
asS'argosies'
p2557
(lp2558
I2
aI22
asS'where'
p2559
(lp2560
I2
aI3
aI4
aI5
aI6
aI10
aI13
aI15
aI16
aI20
aI21
aI22
asS'husband'
p2561
(lp2562
I3
aI15
aI18
aI19
aI20
aI21
aI22
asS'beholding'
p2563
(lp2564
I4
asS'seas'
p2565
(lp2566
I12
aI15
asS'pennyworth'
p2567
(lp2568
I3
asS'whet'
p2569
(lp2570
I20
asS'seat'
p2571
(lp2572
I1
aI2
asS'horse'
p2573
(lp2574
I3
aI6
aI10
asS'flatly'
p2575
(lp2576
I19
asS'seal'
p2577
(lp2578
I4
aI10
aI20
asS'foppery'
p2579
(lp2580
I9
asS'sport'
p2581
(lp2582
I4
aI16
asS'reputed'
p2583
(lp2584
I2
asS'wonder'
p2585
(lp2586
I17
asS'receipt'
p2587
(lp2588
I20
asS'voluntary'
p2589
(lp2590
I5
asS'commiseration'
p2591
(lp2592
I20
asS'ways'
p2593
(lp2594
I19
aI22
asS'amen'
p2595
(lp2596
I6
aI15
asS'ornament'
p2597
(lp2598
I16
asS'weapons'
p2599
(lp2600
I15
asS'enough'
p2601
(lp2602
I6
aI9
aI11
aI15
aI20
aI22
asS'complexion'
p2603
(lp2604
I3
aI5
aI11
aI15
asS'rail'
p2605
(lp2606
I20
asS'between'
p2607
(lp2608
I4
aI6
aI15
aI16
aI18
aI20
asS'presage'
p2609
(lp2610
I16
asS'palates'
p2611
(lp2612
I20
asS'unlocks'
p2613
(lp2614
I11
asS'pluck'
p2615
(lp2616
I5
aI20
aI22
asS'blame'
p2617
(lp2618
I19
aI22
asS'spare'
p2619
(lp2620
I17
asS'come'
p2621
(lp2622
I2
aI3
aI4
aI5
aI6
aI8
aI9
aI10
aI11
aI13
aI15
aI16
aI17
aI18
aI19
aI20
aI21
aI22
asS'grieved'
p2623
(lp2624
I11
asS'mong'
p2625
(lp2626
I19
asS'hearsed'
p2627
(lp2628
I15
asS'many'
p2629
(lp2630
I2
aI4
aI11
aI13
aI15
aI16
aI17
aI19
aI20
aI22
asS'trades'
p2631
(lp2632
I18
asS'arragon'
p2633
(lp2634
I1
aI13
asS'temper'
p2635
(lp2636
I3
asS'crisped'
p2637
(lp2638
I16
asS's'
p2639
(lp2640
I2
aI3
aI4
aI5
aI6
aI7
aI8
aI9
aI10
aI11
aI12
aI13
aI15
aI16
aI18
aI19
aI20
aI21
aI22
asS'awards'
p2641
(lp2642
I20
asS'comes'
p2643
(lp2644
I2
aI3
aI4
aI6
aI10
aI13
aI15
aI16
aI18
aI19
aI20
aI22
asS'comer'
p2645
(lp2646
I5
asS'duty'
p2647
(lp2648
I19
asS'among'
p2649
(lp2650
I3
aI5
aI15
aI16
aI20
asS'madness'
p2651
(lp2652
I3
asS'key'
p2653
(lp2654
I4
aI11
aI13
asS'stream'
p2655
(lp2656
I2
aI16
asS'unthrifty'
p2657
(lp2658
I4
asS'unquiet'
p2659
(lp2660
I16
aI20
asS'dispatch'
p2661
(lp2662
I16
asS'satisfaction'
p2663
(lp2664
I15
asS'exploit'
p2665
(lp2666
I16
asS'learning'
p2667
(lp2668
I6
aI13
aI20
asS'moreover'
p2669
(lp2670
I4
asS'runaway'
p2671
(lp2672
I10
asS'sensible'
p2673
(lp2674
I12
aI13
asS'informed'
p2675
(lp2676
I20
asS'dross'
p2677
(lp2678
I11
asS'mark'
p2679
(lp2680
I4
aI6
aI16
aI20
aI22
asS'mart'
p2681
(lp2682
I15
asS'mars'
p2683
(lp2684
I16
asS'hardly'
p2685
(lp2686
I17
asS'wants'
p2687
(lp2688
I4
asS'vilely'
p2689
(lp2690
I3
asS'direction'
p2691
(lp2692
I4
aI5
asS'dramatis'
p2693
(lp2694
I1
asS'monsieur'
p2695
(lp2696
I3
asS'thousand'
p2697
(lp2698
I4
aI15
aI16
aI18
aI20
aI22
asS'blessing'
p2699
(lp2700
I4
aI6
aI16
aI19
asS'andrew'
p2701
(lp2702
I2
asS'wounds'
p2703
(lp2704
I20
asS'observe'
p2705
(lp2706
I13
asS'wake'
p2707
(lp2708
I22
asS'eaters'
p2709
(lp2710
I19
asS'drum'
p2711
(lp2712
I9
asS'attentive'
p2713
(lp2714
I22
asS'spirit'
p2715
(lp2716
I6
aI7
aI10
aI16
aI18
aI20
aI22
asS'those'
p2717
(lp2718
I2
aI4
aI16
aI20
asS'sound'
p2719
(lp2720
I2
aI9
aI16
aI20
aI22
asS'shaft'
p2721
(lp2722
I2
asS'myself'
p2723
(lp2724
I2
aI5
aI6
aI10
aI11
aI16
aI18
aI20
aI22
asS'hall'
p2725
(lp2726
I22
asS'sophy'
p2727
(lp2728
I5
asS'these'
p2729
(lp2730
I2
aI3
aI4
aI6
aI7
aI11
aI13
aI15
aI16
aI17
aI18
aI20
aI22
asS'might'
p2731
(lp2732
I2
aI6
aI15
aI16
asS'cast'
p2733
(lp2734
I15
asS'fool'
p2735
(lp2736
I2
aI9
aI13
aI17
aI19
asS'brow'
p2737
(lp2738
I16
aI20
asS'purse'
p2739
(lp2740
I2
aI4
aI9
asS'them'
p2741
(lp2742
I2
aI3
aI4
aI10
aI11
aI15
aI16
aI18
aI19
aI20
aI21
aI22
asS'according'
p2743
(lp2744
I3
aI6
aI20
asS'strain'
p2745
(lp2746
I20
asS'embrace'
p2747
(lp2748
I2
asS'heels'
p2749
(lp2750
I6
asS'commanded'
p2751
(lp2752
I13
asS'wisely'
p2753
(lp2754
I6
asS'multitudes'
p2755
(lp2756
I13
asS'ship'
p2757
(lp2758
I12
aI15
asS'bags'
p2759
(lp2760
I9
aI12
asS'northward'
p2761
(lp2762
I5
asS'synagogue'
p2763
(lp2764
I15
asS'harsh'
p2765
(lp2766
I20
asS'doctor'
p2767
(lp2768
I18
aI20
aI22
asS'inquire'
p2769
(lp2770
I2
aI6
aI21
asS'pay'
p2771
(lp2772
I3
aI12
aI16
aI17
aI20
asS'same'
p2773
(lp2774
I2
aI3
aI7
aI8
aI9
aI10
aI15
aI16
aI18
aI19
aI20
aI21
aI22
asS'gentlemen'
p2775
(lp2776
I8
aI10
aI15
asS'worthier'
p2777
(lp2778
I2
asS'speech'
p2779
(lp2780
I13
asS'document'
p2781
(lp2782
I14
asS'events'
p2783
(lp2784
I22
asS'hermit'
p2785
(lp2786
I22
asS'noble'
p2787
(lp2788
I2
aI11
aI13
aI18
aI20
asS'defy'
p2789
(lp2790
I19
asS'running'
p2791
(lp2792
I6
asS'fruit'
p2793
(lp2794
I20
asS'scorned'
p2795
(lp2796
I15
asS'cross'
p2797
(lp2798
I8
aI15
asS'vantage'
p2799
(lp2800
I16
asS'keeping'
p2801
(lp2802
I22
asS'floor'
p2803
(lp2804
I22
asS'without'
p2805
(lp2806
I3
aI9
aI13
aI15
aI20
aI22
asS'relief'
p2807
(lp2808
I18
asS'trains'
p2809
(lp2810
I11
aI13
asS'desirest'
p2811
(lp2812
I20
asS'amazed'
p2813
(lp2814
I22
asS'summer'
p2815
(lp2816
I13
aI15
aI22
asS'they'
p2817
(lp2818
I2
aI3
aI6
aI9
aI10
aI11
aI12
aI13
aI15
aI16
aI18
aI19
aI20
aI21
aI22
asS'being'
p2819
(lp2820
I2
aI3
aI4
aI6
aI11
aI12
aI16
aI18
aI20
aI22
asS'money'
p2821
(lp2822
I2
aI4
aI9
aI15
aI16
aI17
aI19
aI20
asS'rest'
p2823
(lp2824
I2
aI4
aI6
aI9
aI10
aI15
aI16
asS'kill'
p2825
(lp2826
I20
asS'aspect'
p2827
(lp2828
I2
aI5
asS'touch'
p2829
(lp2830
I16
aI20
aI22
asS'speed'
p2831
(lp2832
I12
aI18
aI22
asS'scarfed'
p2833
(lp2834
I10
asS'blow'
p2835
(lp2836
I2
asS'death'
p2837
(lp2838
I3
aI11
aI15
aI16
aI20
aI22
asS'gentleness'
p2839
(lp2840
I20
asS'except'
p2841
(lp2842
I5
asS'lets'
p2843
(lp2844
I2
asS'kingdom'
p2845
(lp2846
I11
asS'frown'
p2847
(lp2848
I3
asS'read'
p2849
(lp2850
I11
aI13
aI22
asS'offence'
p2851
(lp2852
I20
asS'sums'
p2853
(lp2854
I4
asS'mov'
p2855
(lp2856
I1
aI2
aI3
aI4
aI5
aI6
aI7
aI8
aI9
aI10
aI11
aI12
aI13
aI14
aI15
aI16
aI17
aI18
aI19
aI20
aI21
aI22
asS'dark'
p2857
(lp2858
I22
asS'world'
p2859
(lp2860
I2
aI3
aI11
aI12
aI16
aI19
aI20
aI22
asS'aweary'
p2861
(lp2862
I3
asS'lady'
p2863
(lp2864
I2
aI3
aI5
aI11
aI13
aI16
aI19
aI22
asS'hovel'
p2865
(lp2866
I6
asS'moe'
p2867
(lp2868
I2
asS'ruled'
p2869
(lp2870
I6
asS'rheum'
p2871
(lp2872
I4
asS'acquainted'
p2873
(lp2874
I3
aI20
asS'fortune'
p2875
(lp2876
I2
aI5
aI6
aI9
aI13
aI16
aI20
asS'stranger'
p2877
(lp2878
I4
aI16
asS'meetest'
p2879
(lp2880
I20
asS'miracle'
p2881
(lp2882
I16
asS'oddly'
p2883
(lp2884
I3
asS'either'
p2885
(lp2886
I3
aI5
asS'occasions'
p2887
(lp2888
I2
asS'served'
p2889
(lp2890
I4
aI19
asS'inter'
p2891
(lp2892
I22
asS'twelve'
p2893
(lp2894
I4
asS'falsehood'
p2895
(lp2896
I4
asS'wooers'
p2897
(lp2898
I3
asS'smiles'
p2899
(lp2900
I3
asS'table'
p2901
(lp2902
I6
aI19
asS'troth'
p2903
(lp2904
I3
asS'divine'
p2905
(lp2906
I3
asS'thinks'
p2907
(lp2908
I16
aI20
asS'provided'
p2909
(lp2910
I8
aI16
aI20
asS'passions'
p2911
(lp2912
I15
aI16
asS'dimensions'
p2913
(lp2914
I15
asS'confirm'
p2915
(lp2916
I16
asS'footing'
p2917
(lp2918
I22
asS'recorded'
p2919
(lp2920
I20
asS'moon'
p2921
(lp2922
I22
asS'throat'
p2923
(lp2924
I4
asS'moor'
p2925
(lp2926
I19
asS'exit'
p2927
(lp2928
I4
aI6
aI7
aI8
aI9
aI10
aI11
aI17
aI18
aI19
aI20
aI22
asS'expressing'
p2929
(lp2930
I19
asS'moderate'
p2931
(lp2932
I16
asS'knife'
p2933
(lp2934
I20
aI22
asS'welcome'
p2935
(lp2936
I3
aI11
aI16
aI20
aI21
aI22
asS'wheat'
p2937
(lp2938
I2
asS'reasonable'
p2939
(lp2940
I3
asS'business'
p2941
(lp2942
I2
aI6
aI12
aI16
asS'slaughter'
p2943
(lp2944
I20
asS'burthens'
p2945
(lp2946
I20
asS'innocence'
p2947
(lp2948
I2
asS'frenchman'
p2949
(lp2950
I3
aI12
asS'on'
p2951
(lp2952
I1
aI2
aI3
aI4
aI5
aI6
aI8
aI9
aI10
aI13
aI15
aI16
aI17
aI18
aI19
aI20
aI22
asS'stone'
p2953
(lp2954
I2
asS'oh'
p2955
(lp2956
I4
asS'unmannerly'
p2957
(lp2958
I3
asS'wolf'
p2959
(lp2960
I20
asS'stand'
p2961
(lp2962
I2
aI6
aI10
aI13
aI16
aI19
aI20
aI22
asS'knave'
p2963
(lp2964
I4
aI7
asS'act'
p2965
(lp2966
I2
aI3
aI4
aI5
aI6
aI7
aI8
aI9
aI10
aI11
aI12
aI13
aI15
aI16
aI17
aI18
aI19
aI20
aI21
aI22
asS'bond'
p2967
(lp2968
I4
aI12
aI15
aI16
aI17
aI20
asS'or'
p2969
(lp2970
I2
aI4
aI5
aI6
aI10
aI11
aI12
aI13
aI15
aI16
aI20
aI22
asS'road'
p2971
(lp2972
I13
aI22
asS'tribe'
p2973
(lp2974
I4
aI15
asS'wilds'
p2975
(lp2976
I11
asS'lands'
p2977
(lp2978
I20
asS'dagger'
p2979
(lp2980
I15
aI18
asS'unpractised'
p2981
(lp2982
I16
asS'braggart'
p2983
(lp2984
I16
asS'whiter'
p2985
(lp2986
I8
asS'blessed'
p2987
(lp2988
I22
asS'cursed'
p2989
(lp2990
I4
aI5
asS'variable'
p2991
(lp2992
I12
asS'determine'
p2993
(lp2994
I20
asS'dreaming'
p2995
(lp2996
I16
asS'kneels'
p2997
(lp2998
I22
asS'lastly'
p2999
(lp3000
I13
asS'your'
p3001
(lp3002
I2
aI3
aI4
aI5
aI6
aI8
aI9
aI10
aI11
aI12
aI13
aI15
aI16
aI18
aI19
aI20
aI21
aI22
asS'breath'
p3003
(lp3004
I4
aI13
aI16
asS'her'
p3005
(lp3006
I1
aI2
aI6
aI8
aI10
aI11
aI12
aI15
aI16
aI18
aI19
aI20
aI22
asS'glean'
p3007
(lp3008
I13
asS'there'
p3009
(lp3010
I2
aI3
aI4
aI6
aI7
aI9
aI10
aI11
aI12
aI13
aI15
aI16
aI18
aI19
aI20
aI22
asS'martlet'
p3011
(lp3012
I13
asS'cato'
p3013
(lp3014
I2
asS'fates'
p3015
(lp3016
I6
asS'start'
p3017
(lp3018
I6
asS'low'
p3019
(lp3020
I4
aI13
aI16
asS'sealed'
p3021
(lp3022
I3
aI12
asS'vesture'
p3023
(lp3024
I22
asS'hellish'
p3025
(lp3026
I18
asS'rightful'
p3027
(lp3028
I20
asS'fish'
p3029
(lp3030
I2
aI15
asS'assumes'
p3031
(lp3032
I16
asS'gudgeon'
p3033
(lp3034
I2
asS'namest'
p3035
(lp3036
I3
asS'regard'
p3037
(lp3038
I2
asS'hollaing'
p3039
(lp3040
I22
asS'sore'
p3041
(lp3042
I22
asS'consisteth'
p3043
(lp3044
I17
asS'land'
p3045
(lp3046
I4
asS'e'
p3047
(lp3048
I8
aI16
aI19
aI22
asS'rouse'
p3049
(lp3050
I6
asS'with'
p3051
(lp3052
I1
aI2
aI3
aI4
aI5
aI6
aI7
aI8
aI9
aI10
aI11
aI12
aI13
aI15
aI16
aI17
aI18
aI19
aI20
aI21
aI22
asS'faster'
p3053
(lp3054
I10
aI16
asS'hire'
p3055
(lp3056
I4
asS'rage'
p3057
(lp3058
I20
aI22
asS'intermission'
p3059
(lp3060
I16
asS'lawfully'
p3061
(lp3062
I20
asS'couching'
p3063
(lp3064
I22
asS'nearest'
p3065
(lp3066
I20
asS'sadness'
p3067
(lp3068
I2
aI3
asS'kinsman'
p3069
(lp3070
I2
asS'flats'
p3071
(lp3072
I2
asS'grass'
p3073
(lp3074
I2
asS'agree'
p3075
(lp3076
I6
asS'affection'
p3077
(lp3078
I3
aI5
aI12
aI20
asS'strongly'
p3079
(lp3080
I18
asS'gone'
p3081
(lp3082
I6
aI8
aI10
aI12
aI13
aI15
aI16
aI18
aI19
aI20
aI22
asS'taste'
p3083
(lp3084
I6
aI7
asS'certain'
p3085
(lp3086
I4
aI10
aI15
aI20
aI22
asS'describe'
p3087
(lp3088
I3
asS'am'
p3089
(lp3090
I2
aI3
aI4
aI5
aI6
aI7
aI8
aI9
aI10
aI11
aI12
aI13
aI15
aI16
aI17
aI18
aI19
aI20
aI22
asS'impugn'
p3091
(lp3092
I20
asS'deep'
p3093
(lp3094
I3
aI20
asS'an'
p3095
(lp3096
I2
aI4
aI6
aI8
aI9
aI10
aI11
aI13
aI15
aI16
aI17
aI18
aI19
aI20
aI22
asS'as'
p3097
(lp3098
I2
aI3
aI4
aI5
aI6
aI8
aI9
aI10
aI11
aI12
aI13
aI15
aI16
aI18
aI19
aI20
aI22
asS'at'
p3099
(lp3100
I1
aI2
aI3
aI4
aI5
aI6
aI7
aI8
aI9
aI10
aI13
aI15
aI16
aI17
aI18
aI20
aI21
aI22
asS'walks'
p3101
(lp3102
I6
asS'ay'
p3103
(lp3104
I3
aI4
aI8
aI16
aI20
aI22
asS'deed'
p3105
(lp3106
I4
aI20
aI21
aI22
asS'moves'
p3107
(lp3108
I16
asS'allay'
p3109
(lp3110
I6
aI16
asS'casualty'
p3111
(lp3112
I13
asS'cream'
p3113
(lp3114
I2
asS'tedious'
p3115
(lp3116
I10
aI11
asS'again'
p3117
(lp3118
I2
aI3
aI4
aI10
aI11
aI15
aI16
aI18
aI20
aI22
asS'firm'
p3119
(lp3120
I20
asS'englishman'
p3121
(lp3122
I3
asS'idiot'
p3123
(lp3124
I13
asS'deserve'
p3125
(lp3126
I11
aI13
asS'marvellously'
p3127
(lp3128
I2
asS'farther'
p3129
(lp3130
I20
asS'repent'
p3131
(lp3132
I18
aI20
asS'thither'
p3133
(lp3134
I20
asS'bragging'
p3135
(lp3136
I18
asS'fools'
p3137
(lp3138
I2
aI9
aI13
aI19
asS'presenting'
p3139
(lp3140
I13
aI20
asS'poor'
p3141
(lp3142
I3
aI6
aI16
aI19
aI20
asS'troyan'
p3143
(lp3144
I22
asS'time'
p3145
(lp3146
I2
aI3
aI4
aI6
aI8
aI10
aI12
aI13
aI16
aI18
aI20
aI22
asS'misfortune'
p3147
(lp3148
I2
aI8
asS'gifts'
p3149
(lp3150
I13
aI20
asS'oracle'
p3151
(lp3152
I2
asS'eanlings'
p3153
(lp3154
I4
asS'suited'
p3155
(lp3156
I3
aI19
asS'cressid'
p3157
(lp3158
I22
asS'grudge'
p3159
(lp3160
I4
asS'applause'
p3161
(lp3162
I16
asS'calls'
p3163
(lp3164
I2
aI4
aI22
asS'wife'
p3165
(lp3166
I5
aI6
aI7
aI13
aI16
aI19
aI20
aI22
asS'tricks'
p3167
(lp3168
I18
asS'scroll'
p3169
(lp3170
I11
aI16
asS'moonlight'
p3171
(lp3172
I22
asS'repay'
p3173
(lp3174
I4
asS'treason'
p3175
(lp3176
I16
asS'apparel'
p3177
(lp3178
I9
asS'tales'
p3179
(lp3180
I3
aI22
asS'refused'
p3181
(lp3182
I20
asS'all'
p3183
(lp3184
I2
aI3
aI4
aI5
aI6
aI8
aI9
aI10
aI11
aI12
aI13
aI15
aI16
aI17
aI18
aI19
aI20
aI22
asS'since'
p3185
(lp3186
I2
aI16
aI17
aI20
aI22
asS'forget'
p3187
(lp3188
I4
asS'vile'
p3189
(lp3190
I8
aI9
asS'beware'
p3191
(lp3192
I17
asS'tarry'
p3193
(lp3194
I16
aI20
aI21
asS'worms'
p3195
(lp3196
I11
asS'month'
p3197
(lp3198
I4
aI16
asS'hyrcanian'
p3199
(lp3200
I11
asS'fairness'
p3201
(lp3202
I16
asS'dish'
p3203
(lp3204
I6
asS'follow'
p3205
(lp3206
I3
aI12
aI17
aI20
asS'children'
p3207
(lp3208
I19
asS'oaths'
p3209
(lp3210
I16
aI22
asS'dreadful'
p3211
(lp3212
I16
asS'wanton'
p3213
(lp3214
I16
aI22
asS'bare'
p3215
(lp3216
I13
aI20
asS'to'
p3217
(lp3218
I1
aI2
aI3
aI4
aI5
aI6
aI7
aI8
aI9
aI10
aI11
aI12
aI13
aI15
aI16
aI17
aI18
aI19
aI20
aI21
aI22
asS'tail'
p3219
(lp3220
I6
asS'present'
p3221
(lp3222
I2
aI4
aI6
aI16
aI20
asS'smile'
p3223
(lp3224
I2
asS'enjoying'
p3225
(lp3226
I16
asS'ta'
p3227
(lp3228
I13
aI20
asS'paying'
p3229
(lp3230
I16
asS'woman'
p3231
(lp3232
I6
aI15
aI19
aI20
aI22
asS'parcel'
p3233
(lp3234
I3
asS'sitting'
p3235
(lp3236
I15
asS'very'
p3237
(lp3238
I2
aI3
aI6
aI12
aI15
aI16
aI19
aI20
aI22
asS'fat'
p3239
(lp3240
I4
asS'worst'
p3241
(lp3242
I3
asS'fall'
p3243
(lp3244
I3
aI4
aI19
aI20
asS'difference'
p3245
(lp3246
I9
aI15
aI20
asS'strand'
p3247
(lp3248
I2
asS'alien'
p3249
(lp3250
I20
asS'heaven'
p3251
(lp3252
I4
aI6
aI8
aI10
aI11
aI18
aI19
aI20
aI22
asS'enfold'
p3253
(lp3254
I11
asS'cackling'
p3255
(lp3256
I22
asS'ingratitude'
p3257
(lp3258
I22
asS'afeard'
p3259
(lp3260
I3
aI11
aI13
asS'fearful'
p3261
(lp3262
I4
asS'sand'
p3263
(lp3264
I2
aI6
aI16
asS'undone'
p3265
(lp3266
I15
asS'wearer'
p3267
(lp3268
I13
asS'plain'
p3269
(lp3270
I6
aI15
aI19
aI20
aI22
asS'small'
p3271
(lp3272
I6
asS'enacted'
p3273
(lp3274
I20
asS'rats'
p3275
(lp3276
I4
asS'fence'
p3277
(lp3278
I3
asS'penalties'
p3279
(lp3280
I20
asS'streets'
p3281
(lp3282
I12
asS'healed'
p3283
(lp3284
I15
asS'past'
p3285
(lp3286
I10
aI16
aI19
asS'amiss'
p3287
(lp3288
I13
asS'burnish'
p3289
(lp3290
I5
asS'honourable'
p3291
(lp3292
I13
aI18
aI20
asS'lawyer'
p3293
(lp3294
I20
asS'pass'
p3295
(lp3296
I3
aI4
asS'further'
p3297
(lp3298
I11
aI20
asS'quicken'
p3299
(lp3300
I12
asS'conscience'
p3301
(lp3302
I6
asS'lineaments'
p3303
(lp3304
I18
asS'what'
p3305
(lp3306
I2
aI3
aI4
aI6
aI7
aI8
aI9
aI10
aI11
aI12
aI13
aI15
aI16
aI18
aI19
aI20
aI22
asS'stood'
p3307
(lp3308
I5
aI16
aI22
asS'sweetly'
p3309
(lp3310
I22
asS'clock'
p3311
(lp3312
I6
aI8
aI9
aI10
asS'sun'
p3313
(lp3314
I5
aI22
asS'wrecked'
p3315
(lp3316
I15
asS'brief'
p3317
(lp3318
I6
aI20
asS'sup'
p3319
(lp3320
I8
asS'bedfellow'
p3321
(lp3322
I22
asS'tribute'
p3323
(lp3324
I16
aI20
asS'colts'
p3325
(lp3326
I22
asS'public'
p3327
(lp3328
I4
aI9
asS'multitude'
p3329
(lp3330
I13
aI16
asS'dwells'
p3331
(lp3332
I6
aI10
asS'full'
p3333
(lp3334
I3
aI4
aI15
aI16
aI20
aI22
asS'christian'
p3335
(lp3336
I4
aI7
aI8
aI9
aI12
aI15
aI17
aI19
aI20
asS'loose'
p3337
(lp3338
I20
asS'certainly'
p3339
(lp3340
I6
aI15
asS'answers'
p3341
(lp3342
I16
aI20
asS'revenge'
p3343
(lp3344
I15
asS'lack'
p3345
(lp3346
I2
aI18
aI20
asS'excess'
p3347
(lp3348
I4
aI16
asS'hast'
p3349
(lp3350
I6
aI9
aI15
aI19
aI20
asS'marring'
p3351
(lp3352
I16
asS'buzzing'
p3353
(lp3354
I16
asS'salanio'
p3355
(lp3356
I1
aI2
aI8
aI12
aI15
asS'thrift'
p3357
(lp3358
I2
aI4
asS'search'
p3359
(lp3360
I2
aI12
aI15
aI16
asS'masquing'
p3361
(lp3362
I10
asS'losses'
p3363
(lp3364
I15
aI17
aI20
asS'allows'
p3365
(lp3366
I20
asS'qualify'
p3367
(lp3368
I20
asS'soldier'
p3369
(lp3370
I3
asS'misery'
p3371
(lp3372
I18
aI20
asS'bechanced'
p3373
(lp3374
I2
asS'luck'
p3375
(lp3376
I15
asS'via'
p3377
(lp3378
I6
asS'depart'
p3379
(lp3380
I2
asS'thankfully'
p3381
(lp3382
I2
aI21
asS'suddenly'
p3383
(lp3384
I12
aI22
asS'vii'
p3385
(lp3386
I11
asS'hogs'
p3387
(lp3388
I19
asS'follower'
p3389
(lp3390
I6
asS'fearfully'
p3391
(lp3392
I22
asS'beheld'
p3393
(lp3394
I16
asS'mistress'
p3395
(lp3396
I9
aI16
aI20
aI22
asS'unthrift'
p3397
(lp3398
I22
asS'casket'
p3399
(lp3400
I3
aI10
aI11
aI13
aI16
asS'eye'
p3401
(lp3402
I2
aI6
aI9
aI11
aI12
aI13
aI16
aI20
aI22
asS'takes'
p3403
(lp3404
I20
asS'saxony'
p3405
(lp3406
I3
asS'distinct'
p3407
(lp3408
I13
asS'contains'
p3409
(lp3410
I11
asS'two'
p3411
(lp3412
I2
aI3
aI4
aI8
aI12
aI13
aI15
aI16
aI18
aI19
aI20
aI22
asS'taken'
p3413
(lp3414
I4
aI20
asS'garnish'
p3415
(lp3416
I10
aI19
asS'more'
p3417
(lp3418
I2
aI3
aI4
aI6
aI9
aI10
aI11
aI13
aI15
aI16
aI17
aI18
aI19
aI20
aI21
aI22
asS'flat'
p3419
(lp3420
I15
asS'wretched'
p3421
(lp3422
I20
asS'diamond'
p3423
(lp3424
I15
asS'door'
p3425
(lp3426
I3
aI20
asS'knows'
p3427
(lp3428
I6
aI10
aI22
asS'abridged'
p3429
(lp3430
I2
asS'engaged'
p3431
(lp3432
I16
asS'company'
p3433
(lp3434
I2
aI3
aI15
aI16
aI21
asS'spoils'
p3435
(lp3436
I22
asS'excuse'
p3437
(lp3438
I8
aI20
asS'known'
p3439
(lp3440
I6
aI16
aI22
asS'mounted'
p3441
(lp3442
I22
asS'producing'
p3443
(lp3444
I4
asS'glad'
p3445
(lp3446
I3
aI6
aI10
aI15
aI16
asS'cunning'
p3447
(lp3448
I16
asS'leisures'
p3449
(lp3450
I2
asS'fleece'
p3451
(lp3452
I2
aI16
asS'gravel'
p3453
(lp3454
I6
asS'hour'
p3455
(lp3456
I2
aI8
aI10
aI20
aI22
asS'offender'
p3457
(lp3458
I20
asS'dew'
p3459
(lp3460
I22
asS'offended'
p3461
(lp3462
I20
asS'nine'
p3463
(lp3464
I6
aI10
asS'learn'
p3465
(lp3466
I2
aI16
aI20
asS'abram'
p3467
(lp3468
I4
asS'beautiful'
p3469
(lp3470
I7
asS'stubborn'
p3471
(lp3472
I20
asS'division'
p3473
(lp3474
I20
asS'courtesies'
p3475
(lp3476
I4
aI16
asS'tenor'
p3477
(lp3478
I20
asS'accept'
p3479
(lp3480
I3
aI21
asS'autumn'
p3481
(lp3482
I4
asS'attain'
p3483
(lp3484
I5
asS'purchased'
p3485
(lp3486
I13
aI16
aI20
asS'traffickers'
p3487
(lp3488
I2
asS'pond'
p3489
(lp3490
I2
asS'dress'
p3491
(lp3492
I2
asS'offspring'
p3493
(lp3494
I9
asS'presently'
p3495
(lp3496
I2
aI4
aI10
aI13
aI20
asS'uncheck'
p3497
(lp3498
I15
asS'huge'
p3499
(lp3500
I9
asS'needs'
p3501
(lp3502
I8
aI18
aI20
asS'hugg'
p3503
(lp3504
I10
asS'court'
p3505
(lp3506
I1
aI3
aI20
asS'serves'
p3507
(lp3508
I20
asS'rather'
p3509
(lp3510
I2
aI3
aI4
aI6
aI16
aI20
aI22
asS'ratified'
p3511
(lp3512
I16
asS'maps'
p3513
(lp3514
I2
asS'musicians'
p3515
(lp3516
I22
asS'sacred'
p3517
(lp3518
I4
asS'oppose'
p3519
(lp3520
I20
asS'creature'
p3521
(lp3522
I5
aI16
asS'knapped'
p3523
(lp3524
I15
asS'simplicity'
p3525
(lp3526
I4
asS'tried'
p3527
(lp3528
I11
aI13
asS'rude'
p3529
(lp3530
I6
aI19
asS'disgraced'
p3531
(lp3532
I15
asS'advice'
p3533
(lp3534
I21
asS'derived'
p3535
(lp3536
I13
asS'viands'
p3537
(lp3538
I20
asS'blotted'
p3539
(lp3540
I16
asS'padua'
p3541
(lp3542
I18
aI20
aI22
asS'blood'
p3543
(lp3544
I2
aI3
aI5
aI6
aI7
aI15
aI16
aI20
aI22
asS'waver'
p3545
(lp3546
I20
asS'coming'
p3547
(lp3548
I6
aI15
aI19
aI22
asS'aeson'
p3549
(lp3550
I22
asS'a'
p3551
(lp3552
I1
aI2
aI3
aI4
aI5
aI6
aI7
aI8
aI9
aI10
aI11
aI12
aI13
aI15
aI16
aI17
aI18
aI19
aI20
aI21
aI22
asS'contrived'
p3553
(lp3554
I20
asS'refuse'
p3555
(lp3556
I3
aI22
asS'short'
p3557
(lp3558
I6
asS'resemble'
p3559
(lp3560
I15
asS'preferr'
p3561
(lp3562
I6
asS'departure'
p3563
(lp3564
I3
asS'shore'
p3565
(lp3566
I16
asS'skilful'
p3567
(lp3568
I4
asS'threatens'
p3569
(lp3570
I11
asS'banks'
p3571
(lp3572
I22
asS'pleasure'
p3573
(lp3574
I4
aI16
asS'dream'
p3575
(lp3576
I9
asS'feed'
p3577
(lp3578
I4
aI9
aI15
aI16
asS'help'
p3579
(lp3580
I4
aI9
asS'stays'
p3581
(lp3582
I18
aI20
asS'urine'
p3583
(lp3584
I20
asS'soon'
p3585
(lp3586
I7
aI22
asS'trade'
p3587
(lp3588
I17
asS'disabled'
p3589
(lp3590
I2
asS'held'
p3591
(lp3592
I22
asS'paper'
p3593
(lp3594
I8
aI16
asS'through'
p3595
(lp3596
I2
aI6
aI16
asS'heirs'
p3597
(lp3598
I20
asS'hell'
p3599
(lp3600
I7
aI11
aI16
asS'smiling'
p3601
(lp3602
I4
asS'suffer'
p3603
(lp3604
I20
aI22
asS'avenue'
p3605
(lp3606
I22
asS'bringeth'
p3607
(lp3608
I13
asS'pent'
p3609
(lp3610
I10
asS'pray'
p3611
(lp3612
I2
aI3
aI4
aI5
aI6
aI12
aI13
aI16
aI17
aI18
aI19
aI20
aI21
aI22
asS'inward'
p3613
(lp3614
I16
asS'deeds'
p3615
(lp3616
I20
asS'bosom'
p3617
(lp3618
I18
aI20
asS'famished'
p3619
(lp3620
I6
asS'late'
p3621
(lp3622
I12
aI20
asS'harmless'
p3623
(lp3624
I20
asS'absence'
p3625
(lp3626
I3
aI18
aI22
asS'shuddering'
p3627
(lp3628
I16
asS'followers'
p3629
(lp3630
I6
aI22
asS'bereft'
p3631
(lp3632
I16
asS'alter'
p3633
(lp3634
I20
asS'wry'
p3635
(lp3636
I9
asS'forbear'
p3637
(lp3638
I16
asS'good'
p3639
(lp3640
I2
aI3
aI4
aI5
aI6
aI7
aI8
aI10
aI12
aI15
aI16
aI17
aI18
aI19
aI20
aI21
aI22
asS'return'
p3641
(lp3642
I3
aI4
aI6
aI8
aI9
aI10
aI12
aI18
aI22
asS'sucking'
p3643
(lp3644
I5
asS'food'
p3645
(lp3646
I15
aI16
asS'ye'
p3647
(lp3648
I2
aI4
aI19
asS'speechless'
p3649
(lp3650
I2
asS'walls'
p3651
(lp3652
I22
asS'foot'
p3653
(lp3654
I4
aI8
aI15
asS'instructions'
p3655
(lp3656
I3
asS'likeness'
p3657
(lp3658
I15
asS'hereafter'
p3659
(lp3660
I10
asS'elder'
p3661
(lp3662
I20
asS'always'
p3663
(lp3664
I19
asS'eloquence'
p3665
(lp3666
I16
asS'tear'
p3667
(lp3668
I20
asS'blest'
p3669
(lp3670
I4
aI5
aI20
asS'found'
p3671
(lp3672
I2
aI15
aI18
asS'genoa'
p3673
(lp3674
I15
asS'friendship'
p3675
(lp3676
I4
asS'ports'
p3677
(lp3678
I2
asS'embraced'
p3679
(lp3680
I10
aI12
aI16
asS'heavy'
p3681
(lp3682
I20
aI22
asS'harm'
p3683
(lp3684
I2
asS'england'
p3685
(lp3686
I3
aI4
aI11
aI16
asS'pirates'
p3687
(lp3688
I4
asS'weight'
p3689
(lp3690
I16
aI20
asS'generation'
p3691
(lp3692
I4
asS'house'
p3693
(lp3694
I3
aI4
aI5
aI6
aI7
aI8
aI9
aI10
aI11
aI13
aI15
aI16
aI18
aI20
aI21
aI22
asS'hare'
p3695
(lp3696
I3
asS'hard'
p3697
(lp3698
I3
aI4
aI6
aI15
aI16
aI20
aI22
asS'thisbe'
p3699
(lp3700
I22
asS'countrymen'
p3701
(lp3702
I16
asS'expect'
p3703
(lp3704
I4
aI9
aI20
aI22
asS'balance'
p3705
(lp3706
I20
asS'stands'
p3707
(lp3708
I20
aI22
asS'lovers'
p3709
(lp3710
I10
asS'creditor'
p3711
(lp3712
I17
asS'wedlock'
p3713
(lp3714
I22
asS'savage'
p3715
(lp3716
I22
asS'silks'
p3717
(lp3718
I2
asS'publish'
p3719
(lp3720
I20
asS'reverend'
p3721
(lp3722
I20
asS'race'
p3723
(lp3724
I22
asS'sustain'
p3725
(lp3726
I20
asS'issue'
p3727
(lp3728
I8
aI16
asS'highway'
p3729
(lp3730
I15
asS'drink'
p3731
(lp3732
I4
asS'pythagoras'
p3733
(lp3734
I20
asS'serpent'
p3735
(lp3736
I20
asS'circumstance'
p3737
(lp3738
I2
asS'commits'
p3739
(lp3740
I16
asS'forgive'
p3741
(lp3742
I3
aI4
aI20
aI22
asS'reason'
p3743
(lp3744
I12
aI15
aI16
aI17
aI19
aI20
aI22
asS'base'
p3745
(lp3746
I11
aI13
asS'put'
p3747
(lp3748
I6
aI12
aI16
aI20
asS'teach'
p3749
(lp3750
I3
aI13
aI15
aI16
aI20
asS'ash'
p3751
(lp3752
I9
asS'reproach'
p3753
(lp3754
I9
asS'guest'
p3755
(lp3756
I7
asS'owners'
p3757
(lp3758
I16
asS'usurer'
p3759
(lp3760
I15
asS'prophet'
p3761
(lp3762
I4
asS'rack'
p3763
(lp3764
I2
aI16
asS'bridegroom'
p3765
(lp3766
I16
asS'leading'
p3767
(lp3768
I5
asS'consequence'
p3769
(lp3770
I16
asS'blush'
p3771
(lp3772
I10
asS'fallen'
p3773
(lp3774
I20
asS'throws'
p3775
(lp3776
I22
asS'ding'
p3777
(lp3778
I16
asS'indebted'
p3779
(lp3780
I20
asS'dine'
p3781
(lp3782
I4
asS'seeming'
p3783
(lp3784
I16
asS'feel'
p3785
(lp3786
I16
asS'fancy'
p3787
(lp3788
I16
asS'feeder'
p3789
(lp3790
I9
asS'infinite'
p3791
(lp3792
I2
asS'brave'
p3793
(lp3794
I6
asS'done'
p3795
(lp3796
I2
aI3
aI6
aI9
aI16
aI19
asS'exhortation'
p3797
(lp3798
I2
asS'dong'
p3799
(lp3800
I16
asS'inexecrable'
p3801
(lp3802
I20
asS'wager'
p3803
(lp3804
I18
aI19
asS'miss'
p3805
(lp3806
I5
aI16
asS'moan'
p3807
(lp3808
I2
aI17
asS'guess'
p3809
(lp3810
I4
asS'jew'
p3811
(lp3812
I1
aI4
aI6
aI7
aI8
aI10
aI12
aI15
aI16
aI19
aI20
aI21
aI22
asS'jet'
p3813
(lp3814
I15
asS'twenty'
p3815
(lp3816
I3
aI10
aI16
aI18
asS'least'
p3817
(lp3818
I16
asS'saint'
p3819
(lp3820
I3
aI11
asS'hindered'
p3821
(lp3822
I15
asS'grossness'
p3823
(lp3824
I16
asS'store'
p3825
(lp3826
I4
aI22
asS'attendants'
p3827
(lp3828
I1
aI16
asS'absent'
p3829
(lp3830
I22
asS'storm'
p3831
(lp3832
I4
asS'earliest'
p3833
(lp3834
I20
asS'behind'
p3835
(lp3836
I12
aI16
aI20
asS'park'
p3837
(lp3838
I18
asS'importunity'
p3839
(lp3840
I20
asS'appeareth'
p3841
(lp3842
I20
asS'part'
p3843
(lp3844
I2
aI4
aI6
aI9
aI11
aI12
aI15
aI16
aI18
aI20
aI22
asS'believe'
p3845
(lp3846
I2
aI15
aI22
asS'stairs'
p3847
(lp3848
I16
asS'grace'
p3849
(lp3850
I6
aI18
aI19
aI20
asS'albeit'
p3851
(lp3852
I10
asS'kind'
p3853
(lp3854
I4
aI6
aI9
aI19
aI20
aI22
asS'incision'
p3855
(lp3856
I5
asS'double'
p3857
(lp3858
I12
aI16
aI22
asS'barrabas'
p3859
(lp3860
I20
asS'instruction'
p3861
(lp3862
I15
asS'youth'
p3863
(lp3864
I2
aI3
aI16
aI18
aI20
aI21
aI22
asS'gree'
p3865
(lp3866
I6
asS'superfluity'
p3867
(lp3868
I3
asS'contrary'
p3869
(lp3870
I3
aI4
asS'supposed'
p3871
(lp3872
I16
asS'stale'
p3873
(lp3874
I9
asS'toward'
p3875
(lp3876
I18
aI20
aI22
asS'dried'
p3877
(lp3878
I2
asS'livers'
p3879
(lp3880
I16
asS'urgest'
p3881
(lp3882
I20
asS'shrewd'
p3883
(lp3884
I16
asS'waft'
p3885
(lp3886
I22
asS'livery'
p3887
(lp3888
I5
aI6
asS'decrees'
p3889
(lp3890
I20
asS'sentences'
p3891
(lp3892
I3
asS'antonio'
p3893
(lp3894
I1
aI2
aI4
aI10
aI12
aI15
aI16
aI17
aI18
aI20
aI22
asS'organs'
p3895
(lp3896
I15
asS'fading'
p3897
(lp3898
I16
asS'sell'
p3899
(lp3900
I4
aI20
asS'lie'
p3901
(lp3902
I2
aI11
aI15
aI16
aI22
asS'depending'
p3903
(lp3904
I3
asS'self'
p3905
(lp3906
I2
aI13
aI22
asS'officers'
p3907
(lp3908
I1
asS'labour'
p3909
(lp3910
I11
asS'signiors'
p3911
(lp3912
I2
asS'portia'
p3913
(lp3914
I1
aI2
aI3
aI5
aI11
aI13
aI16
aI18
aI19
aI20
aI21
aI22
asS'play'
p3915
(lp3916
I2
aI5
aI7
aI10
aI16
aI19
asS'towards'
p3917
(lp3918
I3
aI9
asS'gild'
p3919
(lp3920
I10
asS'monastery'
p3921
(lp3922
I18
asS'measures'
p3923
(lp3924
I10
asS'reach'
p3925
(lp3926
I20
asS'humbly'
p3927
(lp3928
I20
asS'accoutred'
p3929
(lp3930
I18
asS'most'
p3931
(lp3932
I2
aI3
aI4
aI5
aI6
aI7
aI16
aI17
aI18
aI20
aI21
asS'stockish'
p3933
(lp3934
I22
asS'wive'
p3935
(lp3936
I3
asS'nothing'
p3937
(lp3938
I2
aI3
aI6
aI9
aI15
aI16
aI20
aI22
asS'seasons'
p3939
(lp3940
I20
asS'constitution'
p3941
(lp3942
I16
asS'understands'
p3943
(lp3944
I3
asS'feasting'
p3945
(lp3946
I9
asS'clear'
p3947
(lp3948
I2
aI13
asS'sometimes'
p3949
(lp3950
I2
asS'blent'
p3951
(lp3952
I16
asS'unreasonable'
p3953
(lp3954
I22
asS'faithless'
p3955
(lp3956
I8
asS'necessary'
p3957
(lp3958
I20
asS'giving'
p3959
(lp3960
I4
aI20
asS'forerunner'
p3961
(lp3962
I3
asS'lordship'
p3963
(lp3964
I16
asS'barren'
p3965
(lp3966
I4
asS'weigh'
p3967
(lp3968
I11
aI20
asS'lying'
p3969
(lp3970
I15
asS'stones'
p3971
(lp3972
I12
aI22
asS'despise'
p3973
(lp3974
I3
asS'think'
p3975
(lp3976
I2
aI3
aI4
aI6
aI11
aI12
aI15
aI18
aI19
aI20
aI22
asS'rebels'
p3977
(lp3978
I15
asS'gold'
p3979
(lp3980
I3
aI4
aI8
aI11
aI13
aI15
aI16
aI22
asS'gates'
p3981
(lp3982
I3
asS'swelling'
p3983
(lp3984
I2
asS'fond'
p3985
(lp3986
I13
aI17
asS'quarrels'
p3987
(lp3988
I22
asS'defended'
p3989
(lp3990
I22
asS'relation'
p3991
(lp3992
I20
asS'heavens'
p3993
(lp3994
I6
asS'fine'
p3995
(lp3996
I18
aI20
asS'find'
p3997
(lp3998
I2
aI9
aI12
aI13
aI15
aI16
aI18
aI20
aI22
asS'gilded'
p3999
(lp4000
I11
asS'shouldst'
p4001
(lp4002
I20
asS'deserts'
p4003
(lp4004
I11
aI13
asS'grazed'
p4005
(lp4006
I4
asS'justice'
p4007
(lp4008
I1
aI12
aI16
aI17
aI20
asS'ruin'
p4009
(lp4010
I13
aI16
aI20
asS'unworthier'
p4011
(lp4012
I5
asS'rotten'
p4013
(lp4014
I4
asS'unhappy'
p4015
(lp4016
I22
asS'unlesson'
p4017
(lp4018
I16
asS'penalty'
p4019
(lp4020
I4
aI20
asS'pretty'
p4021
(lp4022
I10
aI22
asS'throstle'
p4023
(lp4024
I3
asS'ravenous'
p4025
(lp4026
I20
asS'hip'
p4027
(lp4028
I4
aI20
asS'shepherd'
p4029
(lp4030
I4
asS'his'
p4031
(lp4032
I1
aI2
aI3
aI4
aI5
aI6
aI7
aI8
aI9
aI10
aI11
aI12
aI13
aI15
aI16
aI17
aI19
aI20
aI21
aI22
asS'hit'
p4033
(lp4034
I6
aI16
asS'gains'
p4035
(lp4036
I15
asS'gratis'
p4037
(lp4038
I4
aI17
aI20
asS'king'
p4039
(lp4040
I16
aI22
asS'bend'
p4041
(lp4042
I4
asS'beams'
p4043
(lp4044
I22
asS'express'
p4045
(lp4046
I4
aI16
aI20
asS'sunny'
p4047
(lp4048
I2
asS'trees'
p4049
(lp4050
I22
asS'rings'
p4051
(lp4052
I21
aI22
asS'shylock'
p4053
(lp4054
I1
aI4
aI6
aI7
aI9
aI15
aI17
aI20
aI21
asS'mannerly'
p4055
(lp4056
I13
asS'overpeer'
p4057
(lp4058
I2
asS'beards'
p4059
(lp4060
I16
asS'him'
p4061
(lp4062
I3
aI4
aI6
aI7
aI9
aI12
aI13
aI15
aI16
aI17
aI19
aI20
aI21
aI22
asS'merchandise'
p4063
(lp4064
I2
aI15
asS'shines'
p4065
(lp4066
I22
asS'enemy'
p4067
(lp4068
I4
aI16
aI20
asS'unfurnish'
p4069
(lp4070
I16
asS'gelt'
p4071
(lp4072
I22
asS'cry'
p4073
(lp4074
I16
asS'wroth'
p4075
(lp4076
I13
asS'gloves'
p4077
(lp4078
I20
asS'common'
p4079
(lp4080
I13
aI16
aI18
asS'miseries'
p4081
(lp4082
I3
asS'naughty'
p4083
(lp4084
I16
aI17
aI22
asS'peasantry'
p4085
(lp4086
I13
asS'courteous'
p4087
(lp4088
I13
aI20
asS'doublet'
p4089
(lp4090
I3
asS'approaching'
p4091
(lp4092
I13
asS'fledged'
p4093
(lp4094
I15
asS'bars'
p4095
(lp4096
I5
aI16
asS'set'
p4097
(lp4098
I3
aI6
aI11
aI19
aI20
aI22
asS'art'
p4099
(lp4100
I6
aI10
aI13
aI17
aI20
asS'gainst'
p4101
(lp4102
I20
asS'achieved'
p4103
(lp4104
I16
asS'principal'
p4105
(lp4106
I20
asS'see'
p4107
(lp4108
I2
aI3
aI4
aI6
aI7
aI9
aI10
aI11
aI13
aI15
aI16
aI17
aI18
aI20
aI21
aI22
asS'dumb'
p4109
(lp4110
I2
aI3
aI22
asS'seated'
p4111
(lp4112
I3
asS'sea'
p4113
(lp4114
I2
aI15
aI16
aI22
asS'lisbon'
p4115
(lp4116
I16
asS'tender'
p4117
(lp4118
I20
asS'portrait'
p4119
(lp4120
I13
asS'bark'
p4121
(lp4122
I2
aI10
asS'outward'
p4123
(lp4124
I13
aI16
asS'breast'
p4125
(lp4126
I20
asS'outrageous'
p4127
(lp4128
I12
asS'spirits'
p4129
(lp4130
I11
aI13
aI20
aI22
asS'please'
p4131
(lp4132
I2
aI4
aI6
aI8
aI10
aI20
asS'woo'
p4133
(lp4134
I13
asS'won'
p4135
(lp4136
I3
aI4
aI5
aI16
asS'dost'
p4137
(lp4138
I6
aI11
aI13
aI16
aI19
aI20
asS'marriage'
p4139
(lp4140
I5
aI13
aI16
asS'nestor'
p4141
(lp4142
I2
asS'hairs'
p4143
(lp4144
I3
aI16
asS'thrive'
p4145
(lp4146
I4
aI11
asS'doubly'
p4147
(lp4148
I22
asS'knowing'
p4149
(lp4150
I6
asS'latin'
p4151
(lp4152
I3
asS'gramercy'
p4153
(lp4154
I6
asS'sold'
p4155
(lp4156
I11
asS'brewing'
p4157
(lp4158
I9
asS'sola'
p4159
(lp4160
I22
asS'pagan'
p4161
(lp4162
I7
asS'riddance'
p4163
(lp4164
I11
asS'both'
p4165
(lp4166
I2
aI6
aI15
aI16
aI18
aI19
aI20
aI22
asS'last'
p4167
(lp4168
I4
aI6
aI9
aI16
aI20
aI22
asS'rasher'
p4169
(lp4170
I19
asS'sultan'
p4171
(lp4172
I5
asS'thou'
p4173
(lp4174
I2
aI3
aI4
aI6
aI7
aI8
aI9
aI10
aI11
aI13
aI15
aI16
aI17
aI18
aI19
aI20
aI21
aI22
asS'powers'
p4175
(lp4176
I16
asS'barely'
p4177
(lp4178
I20
asS'foreign'
p4179
(lp4180
I11
asS'roman'
p4181
(lp4182
I16
asS'became'
p4183
(lp4184
I3
asS'bondman'
p4185
(lp4186
I4
asS'poverty'
p4187
(lp4188
I20
asS'corrupt'
p4189
(lp4190
I16
asS'whole'
p4191
(lp4192
I2
aI18
aI19
asS'finds'
p4193
(lp4194
I19
asS'majesty'
p4195
(lp4196
I20
asS'supply'
p4197
(lp4198
I4
asS'reasons'
p4199
(lp4200
I2
asS'sweet'
p4201
(lp4202
I3
aI7
aI10
aI13
aI16
aI19
aI22
asS'others'
p4203
(lp4204
I4
aI5
aI20
asS'manners'
p4205
(lp4206
I7
aI18
asS'harbour'
p4207
(lp4208
I22
asS'torturest'
p4209
(lp4210
I15
asS'likes'
p4211
(lp4212
I20
asS'decree'
p4213
(lp4214
I3
aI20
asS'vessel'
p4215
(lp4216
I2
aI12
aI16
asS'gnats'
p4217
(lp4218
I16
asS'goats'
p4219
(lp4220
I4
asS'patiently'
p4221
(lp4222
I13
asS'worthless'
p4223
(lp4224
I13
asS'devil'
p4225
(lp4226
I3
aI4
aI6
aI7
aI15
aI20
asS'raise'
p4227
(lp4228
I2
aI4
aI6
aI19
asS'stamp'
p4229
(lp4230
I13
asS'acceptance'
p4231
(lp4232
I20
asS'due'
p4233
(lp4234
I20
asS'gratiano'
p4235
(lp4236
I1
aI2
aI6
aI8
aI10
aI12
aI16
aI20
aI21
aI22
asS'whom'
p4237
(lp4238
I2
aI3
aI5
aI13
aI16
aI18
aI20
aI22
asS'secret'
p4239
(lp4240
I2
aI18
asS'damn'
p4241
(lp4242
I2
aI20
asS'meeting'
p4243
(lp4244
I16
asS'empty'
p4245
(lp4246
I11
aI14
aI20
asS'tripolis'
p4247
(lp4248
I4
aI15
aI16
asS'varnish'
p4249
(lp4250
I9
aI13
asS'flight'
p4251
(lp4252
I2
aI15
asS'fire'
p4253
(lp4254
I5
aI10
aI13
aI16
asS'healths'
p4255
(lp4256
I22
asS'defect'
p4257
(lp4258
I6
asS'understand'
p4259
(lp4260
I4
aI12
aI16
aI19
aI20
asS'liver'
p4261
(lp4262
I2
asS'bidding'
p4263
(lp4264
I9
asS'ado'
p4265
(lp4266
I2
asS'scottish'
p4267
(lp4268
I3
asS'pierce'
p4269
(lp4270
I20
aI22
asS'stolen'
p4271
(lp4272
I12
asS'look'
p4273
(lp4274
I2
aI4
aI5
aI6
aI9
aI10
aI12
aI13
aI15
aI16
aI17
aI18
aI19
aI20
aI22
asS'grains'
p4275
(lp4276
I2
asS'enchanted'
p4277
(lp4278
I22
asS'straight'
p4279
(lp4280
I2
aI3
aI4
aI8
aI10
aI13
asS'civility'
p4281
(lp4282
I6
asS'governor'
p4283
(lp4284
I16
asS'pace'
p4285
(lp4286
I10
asS'while'
p4287
(lp4288
I5
aI6
aI16
aI19
aI22
asS'behavior'
p4289
(lp4290
I3
aI6
asS'pearls'
p4291
(lp4292
I16
asS'fleet'
p4293
(lp4294
I16
aI20
asS'pack'
p4295
(lp4296
I6
asS'youthful'
p4297
(lp4298
I22
asS'pound'
p4299
(lp4300
I4
aI17
aI20
asS'costly'
p4301
(lp4302
I13
asS'agitation'
p4303
(lp4304
I19
asS'moth'
p4305
(lp4306
I13
asS'belmont'
p4307
(lp4308
I1
aI2
aI3
aI5
aI6
aI11
aI13
aI16
aI18
aI20
aI22
asS'herein'
p4309
(lp4310
I2
aI6
aI20
asS'confound'
p4311
(lp4312
I16
asS'ecstasy'
p4313
(lp4314
I16
asS'reads'
p4315
(lp4316
I11
aI13
aI16
aI20
asS'itself'
p4317
(lp4318
I16
aI20
aI22
asS'lodged'
p4319
(lp4320
I20
asS'owes'
p4321
(lp4322
I16
asS'ready'
p4323
(lp4324
I6
aI20
asS'rib'
p4325
(lp4326
I11
asS'fairer'
p4327
(lp4328
I2
aI6
aI13
asS'italy'
p4329
(lp4330
I3
aI6
aI16
asS'grant'
p4331
(lp4332
I2
aI3
aI17
aI20
asS'fetching'
p4333
(lp4334
I22
asS'maids'
p4335
(lp4336
I6
aI16
asS'stomachs'
p4337
(lp4338
I19
asS'ewe'
p4339
(lp4340
I20
asS'wherein'
p4341
(lp4342
I2
aI13
aI20
aI22
asS'discourse'
p4343
(lp4344
I19
asS'cruelty'
p4345
(lp4346
I20
asS'laban'
p4347
(lp4348
I4
asS'proved'
p4349
(lp4350
I10
aI20
asS'strangers'
p4351
(lp4352
I3
aI17
asS'higher'
p4353
(lp4354
I22
asS'mortifying'
p4355
(lp4356
I2
asS'used'
p4357
(lp4358
I15
asS'displeased'
p4359
(lp4360
I22
asS'snail'
p4361
(lp4362
I9
asS'praising'
p4363
(lp4364
I13
aI18
asS'keys'
p4365
(lp4366
I9
asS'yesterday'
p4367
(lp4368
I12
asS'husbands'
p4369
(lp4370
I3
aI18
aI20
aI21
aI22
asS'strength'
p4371
(lp4372
I22
asS'leaps'
p4373
(lp4374
I3
asS'purpose'
p4375
(lp4376
I2
aI4
aI6
aI16
aI20
asS'necessity'
p4377
(lp4378
I4
aI18
asS'infused'
p4379
(lp4380
I20
asS'shrive'
p4381
(lp4382
I3
asS'charybdis'
p4383
(lp4384
I19
asS'early'
p4385
(lp4386
I20
asS'lower'
p4387
(lp4388
I2
asS'flock'
p4389
(lp4390
I20
asS'commendable'
p4391
(lp4392
I2
aI19
asS'cheek'
p4393
(lp4394
I4
aI16
asS'spent'
p4395
(lp4396
I15
asS'morrow'
p4397
(lp4398
I2
aI17
asS'person'
p4399
(lp4400
I2
asS'cheer'
p4401
(lp4402
I16
aI19
aI20
asS'edge'
p4403
(lp4404
I6
asS'starved'
p4405
(lp4406
I20
aI22
asS'thoroughly'
p4407
(lp4408
I20
asS'gatory'
p4409
(lp4410
I22
asS'recant'
p4411
(lp4412
I20
asS'spend'
p4413
(lp4414
I2
aI13
asS'grossly'
p4415
(lp4416
I22
asS'know'
p4417
(lp4418
I2
aI3
aI4
aI6
aI8
aI10
aI11
aI15
aI16
aI17
aI18
aI19
aI20
aI22
asS'ambassador'
p4419
(lp4420
I13
asS'endeavour'
p4421
(lp4422
I18
asS'bearer'
p4423
(lp4424
I8
asS'lottery'
p4425
(lp4426
I3
aI5
asS'pigeons'
p4427
(lp4428
I10
asS'salvation'
p4429
(lp4430
I20
asS'erebus'
p4431
(lp4432
I22
asS'shape'
p4433
(lp4434
I16
asS'hercules'
p4435
(lp4436
I5
aI16
asS'praying'
p4437
(lp4438
I22
asS'prince'
p4439
(lp4440
I1
aI3
aI5
aI11
aI13
aI16
asS'unto'
p4441
(lp4442
I2
aI4
aI5
aI6
aI18
aI20
aI22
asS'profitable'
p4443
(lp4444
I4
asS'cut'
p4445
(lp4446
I2
aI4
aI20
aI22
asS'conjured'
p4447
(lp4448
I4
asS'cur'
p4449
(lp4450
I4
aI17
asS'vendible'
p4451
(lp4452
I2
asS'danger'
p4453
(lp4454
I20
asS'dare'
p4455
(lp4456
I8
aI15
aI22
asS'crying'
p4457
(lp4458
I12
asS'manna'
p4459
(lp4460
I22
asS'hates'
p4461
(lp4462
I4
aI17
aI20
asS'manage'
p4463
(lp4464
I18
asS'knowist'
p4465
(lp4466
I21
asS'big'
p4467
(lp4468
I12
asS'bid'
p4469
(lp4470
I3
aI8
aI9
aI16
aI19
aI20
aI22
asS'follies'
p4471
(lp4472
I10
asS'wives'
p4473
(lp4474
I6
aI10
aI16
asS'liveries'
p4475
(lp4476
I6
asS'redeem'
p4477
(lp4478
I16
asS'quest'
p4479
(lp4480
I2
asS'dearly'
p4481
(lp4482
I20
asS'snore'
p4483
(lp4484
I9
asS'unwearied'
p4485
(lp4486
I16
asS'wings'
p4487
(lp4488
I2
aI15
asS'd'
p4489
(lp4490
I2
aI4
aI5
aI6
aI8
aI9
aI10
aI11
aI12
aI13
aI15
aI16
aI17
aI18
aI19
aI20
aI22
asS'squandered'
p4491
(lp4492
I4
asS'follows'
p4493
(lp4494
I2
aI3
asS'glitters'
p4495
(lp4496
I11
asS'strife'
p4497
(lp4498
I7
asS'scape'
p4499
(lp4500
I6
aI16
asS'methought'
p4501
(lp4502
I4
asS'foolish'
p4503
(lp4504
I3
aI7
asS'canst'
p4505
(lp4506
I16
aI20
asS'often'
p4507
(lp4508
I11
aI15
aI16
asS'obliged'
p4509
(lp4510
I10
asS'fathers'
p4511
(lp4512
I20
asS'creation'
p4513
(lp4514
I16
asS'some'
p4515
(lp4516
I2
aI3
aI6
aI7
aI8
aI9
aI10
aI11
aI12
aI13
aI15
aI16
aI18
aI19
aI20
aI22
asS'back'
p4517
(lp4518
I2
aI11
aI18
aI20
asS'impeach'
p4519
(lp4520
I16
aI17
asS'sighs'
p4521
(lp4522
I15
asS'lips'
p4523
(lp4524
I2
aI16
asS'pries'
p4525
(lp4526
I13
asS'candle'
p4527
(lp4528
I10
aI13
aI22
asS'pale'
p4529
(lp4530
I16
asS'slubber'
p4531
(lp4532
I12
asS'pronounced'
p4533
(lp4534
I3
aI20
asS'acquaintance'
p4535
(lp4536
I6
asS'empties'
p4537
(lp4538
I22
asS'though'
p4539
(lp4540
I2
aI6
aI7
aI16
aI20
aI22
asS'exceeding'
p4541
(lp4542
I2
aI6
asS'prop'
p4543
(lp4544
I6
aI20
asS'modest'
p4545
(lp4546
I22
asS'religion'
p4547
(lp4548
I16
asS'pen'
p4549
(lp4550
I22
asS'loves'
p4551
(lp4552
I12
asS'lark'
p4553
(lp4554
I22
asS'temple'
p4555
(lp4556
I5
asS't'
p4557
(lp4558
I6
aI10
aI11
aI15
aI22
asS'be'
p4559
(lp4560
I2
aI3
aI4
aI5
aI6
aI7
aI8
aI9
aI10
aI11
aI12
aI13
aI15
aI16
aI17
aI18
aI19
aI20
aI21
aI22
asS'run'
p4561
(lp4562
I2
aI6
aI10
aI20
aI22
asS'unschool'
p4563
(lp4564
I16
asS'reddest'
p4565
(lp4566
I5
asS'cutler'
p4567
(lp4568
I22
asS'obscures'
p4569
(lp4570
I16
asS'virtues'
p4571
(lp4572
I2
asS'endymion'
p4573
(lp4574
I22
asS'plots'
p4575
(lp4576
I2
asS'obscured'
p4577
(lp4578
I10
asS'by'
p4579
(lp4580
I2
aI3
aI4
aI5
aI6
aI8
aI9
aI10
aI11
aI12
aI13
aI15
aI16
aI18
aI19
aI20
aI22
asS'faith'
p4581
(lp4582
I2
aI4
aI8
aI10
aI16
aI20
aI22
asS'goods'
p4583
(lp4584
I20
asS'mingled'
p4585
(lp4586
I16
asS'anything'
p4587
(lp4588
I16
aI20
asS'wrinkles'
p4589
(lp4590
I2
asS'deserves'
p4591
(lp4592
I11
aI13
asS'pains'
p4593
(lp4594
I10
aI20
aI22
asS'greets'
p4595
(lp4596
I20
asS'forgave'
p4597
(lp4598
I22
asS'wrinkled'
p4599
(lp4600
I20
asS'germany'
p4601
(lp4602
I3
asS'italian'
p4603
(lp4604
I3
asS'silence'
p4605
(lp4606
I2
aI12
aI19
aI22
asS'repair'
p4607
(lp4608
I20
asS'letter'
p4609
(lp4610
I7
aI8
aI16
aI18
aI20
aI22
asS'into'
p4611
(lp4612
I2
aI3
aI4
aI9
aI16
aI18
aI19
aI20
aI22
asS'within'
p4613
(lp4614
I2
aI3
aI4
aI10
aI11
aI18
aI20
aI22
asS'exceed'
p4615
(lp4616
I16
asS'framed'
p4617
(lp4618
I2
asS'remembrance'
p4619
(lp4620
I20
asS'next'
p4621
(lp4622
I6
aI13
aI22
asS'curtsy'
p4623
(lp4624
I2
asS'jews'
p4625
(lp4626
I19
asS'eleven'
p4627
(lp4628
I6
asS'question'
p4629
(lp4630
I2
aI18
aI20
asS'long'
p4631
(lp4632
I6
aI10
aI13
aI16
asS'dardanian'
p4633
(lp4634
I16
asS'worshipped'
p4635
(lp4636
I6
asS'prettier'
p4637
(lp4638
I18
asS'suit'
p4639
(lp4640
I3
aI4
aI6
aI8
aI11
aI20
asS'forward'
p4641
(lp4642
I5
asS'shalt'
p4643
(lp4644
I2
aI7
aI9
aI20
asS'opens'
p4645
(lp4646
I13
asS'record'
p4647
(lp4648
I20
asS'himself'
p4649
(lp4650
I3
aI4
aI6
aI10
aI15
aI16
aI20
aI22
asS'jacks'
p4651
(lp4652
I18
asS'jewish'
p4653
(lp4654
I4
aI20
asS'frost'
p4655
(lp4656
I11
asS'boys'
p4657
(lp4658
I12
asS'alcides'
p4659
(lp4660
I5
aI16
asS'reed'
p4661
(lp4662
I18
asS'alive'
p4663
(lp4664
I6
aI13
asS'upright'
p4665
(lp4666
I19
aI20
asS'line'
p4667
(lp4668
I6
asS'dull'
p4669
(lp4670
I11
aI16
aI17
aI22
asS'directed'
p4671
(lp4672
I8
aI16
asS'immured'
p4673
(lp4674
I11
asS'skull'
p4675
(lp4676
I16
asS'sounds'
p4677
(lp4678
I16
aI22
asS'seize'
p4679
(lp4680
I20
asS'up'
p4681
(lp4682
I4
aI6
aI8
aI9
aI15
aI19
aI20
asS'us'
p4683
(lp4684
I2
aI4
aI5
aI8
aI10
aI12
aI15
aI16
aI17
aI18
aI19
aI20
aI22
asS'morocco'
p4685
(lp4686
I1
aI3
aI5
aI11
asS'slander'
p4687
(lp4688
I22
asS'loving'
p4689
(lp4690
I7
aI16
aI20
asS'called'
p4691
(lp4692
I3
asS'deliverance'
p4693
(lp4694
I16
asS'bell'
p4695
(lp4696
I16
asS'constant'
p4697
(lp4698
I10
aI16
asS'goodly'
p4699
(lp4700
I4
aI19
asS'cover'
p4701
(lp4702
I13
aI19
asS'possessor'
p4703
(lp4704
I4
asS'single'
p4705
(lp4706
I4
asS'warning'
p4707
(lp4708
I11
asS'curb'
p4709
(lp4710
I20
asS'gusts'
p4711
(lp4712
I20
asS'denying'
p4713
(lp4714
I18
asS'vehement'
p4715
(lp4716
I22
asS'uncapable'
p4717
(lp4718
I20
asS'peace'
p4719
(lp4720
I20
aI22
asS'shame'
p4721
(lp4722
I20
aI22
asS'nay'
p4723
(lp4724
I6
aI8
aI15
aI16
aI19
aI20
aI22
asS'mock'
p4725
(lp4726
I5
asS'nice'
p4727
(lp4728
I5
asS'livings'
p4729
(lp4730
I16
asS'draw'
p4731
(lp4732
I11
aI13
aI16
aI20
aI22
asS'musician'
p4733
(lp4734
I22
asS'princely'
p4735
(lp4736
I3
asS'lend'
p4737
(lp4738
I4
aI15
aI22
asS'currish'
p4739
(lp4740
I20
asS'prepared'
p4741
(lp4742
I20
asS'meaning'
p4743
(lp4744
I3
aI4
aI19
asS'cater'
p4745
(lp4746
I6
asS'lent'
p4747
(lp4748
I17
asS'dram'
p4749
(lp4750
I20
asS'desert'
p4751
(lp4752
I13
asS'mood'
p4753
(lp4754
I20
asS'destinies'
p4755
(lp4756
I6
asS'happier'
p4757
(lp4758
I16
asS'vice'
p4759
(lp4760
I16
asS'established'
p4761
(lp4762
I20
asS'age'
p4763
(lp4764
I6
aI20
asS'doves'
p4765
(lp4766
I6
asS'far'
p4767
(lp4768
I6
aI11
aI16
aI20
aI22
asS'having'
p4769
(lp4770
I3
aI6
aI16
aI19
asS'once'
p4771
(lp4772
I4
aI10
aI11
aI13
aI20
aI22
asS'tombs'
p4773
(lp4774
I11
asS'soften'
p4775
(lp4776
I20
asS'highways'
p4777
(lp4778
I22
asS'shone'
p4779
(lp4780
I22
asS'winds'
p4781
(lp4782
I2
aI4
asS'gossip'
p4783
(lp4784
I15
asS'argosy'
p4785
(lp4786
I4
aI15
asS'baron'
p4787
(lp4788
I3
asS'uphold'
p4789
(lp4790
I22
asS'disabling'
p4791
(lp4792
I11
asS'peering'
p4793
(lp4794
I2
asS'young'
p4795
(lp4796
I3
aI5
aI6
aI9
aI11
aI13
aI16
aI18
aI20
aI22
asS'send'
p4797
(lp4798
I18
aI20
aI22
asS'nose'
p4799
(lp4800
I9
aI20
asS'graved'
p4801
(lp4802
I11
asS'epitaph'
p4803
(lp4804
I20
asS'passion'
p4805
(lp4806
I12
aI20
asS'dislike'
p4807
(lp4808
I3
asS'fatal'
p4809
(lp4810
I15
asS'friendly'
p4811
(lp4812
I6
asS'sent'
p4813
(lp4814
I10
aI20
aI21
asS'abode'
p4815
(lp4816
I10
asS'virtuous'
p4817
(lp4818
I3
asS'breathing'
p4819
(lp4820
I11
aI15
aI22
asS'garden'
p4821
(lp4822
I19
asS'torture'
p4823
(lp4824
I15
asS'neighbourly'
p4825
(lp4826
I3
asS'ague'
p4827
(lp4828
I2
asS'mastership'
p4829
(lp4830
I6
asS'huddled'
p4831
(lp4832
I20
asS'wishes'
p4833
(lp4834
I16
asS'scanted'
p4835
(lp4836
I5
asS'twice'
p4837
(lp4838
I20
asS'surgeon'
p4839
(lp4840
I20
asS'eaning'
p4841
(lp4842
I4
asS'compulsion'
p4843
(lp4844
I20
asS'barbary'
p4845
(lp4846
I16
asS'marry'
p4847
(lp4848
I3
aI6
aI8
aI12
aI19
aI20
asS'hive'
p4849
(lp4850
I9
asS'try'
p4851
(lp4852
I2
aI5
aI6
asS'goodwins'
p4853
(lp4854
I15
asS'married'
p4855
(lp4856
I3
aI16
aI20
asS'wench'
p4857
(lp4858
I6
asS'frays'
p4859
(lp4860
I18
asS'leonardo'
p4861
(lp4862
I1
aI6
asS'enforce'
p4863
(lp4864
I18
asS'comforts'
p4865
(lp4866
I22
asS'bleeding'
p4867
(lp4868
I9
asS'crow'
p4869
(lp4870
I22
asS'lightest'
p4871
(lp4872
I16
asS'malice'
p4873
(lp4874
I20
asS'privy'
p4875
(lp4876
I20
asS'jump'
p4877
(lp4878
I13
asS'forfeitures'
p4879
(lp4880
I17
asS'go'
p4881
(lp4882
I2
aI3
aI4
aI6
aI8
aI9
aI10
aI11
aI12
aI13
aI15
aI16
aI17
aI18
aI19
aI20
aI22
asS'earth'
p4883
(lp4884
I5
aI11
aI12
aI19
asS'notwithstanding'
p4885
(lp4886
I4
aI16
aI22
asS'paleness'
p4887
(lp4888
I16
asS'odd'
p4889
(lp4890
I6
asS'ladyship'
p4891
(lp4892
I18
asS'font'
p4893
(lp4894
I20
asS'plays'
p4895
(lp4896
I16
asS'power'
p4897
(lp4898
I4
aI16
aI20
aI22
asS'carthage'
p4899
(lp4900
I22
asS'sepulchre'
p4901
(lp4902
I16
asS'unbated'
p4903
(lp4904
I10
asS'piper'
p4905
(lp4906
I2
asS'edifice'
p4907
(lp4908
I2
asS'below'
p4909
(lp4910
I10
asS'waiting'
p4911
(lp4912
I1
asS'indian'
p4913
(lp4914
I16
asS'oration'
p4915
(lp4916
I16
asS'infuse'
p4917
(lp4918
I20
asS'bird'
p4919
(lp4920
I15
asS'body'
p4921
(lp4922
I3
aI4
aI16
aI20
aI22
asS'melancholy'
p4923
(lp4924
I2
asS'led'
p4925
(lp4926
I5
asS'chose'
p4927
(lp4928
I11
aI13
asS'desires'
p4929
(lp4930
I11
aI15
aI20
asS'exchange'
p4931
(lp4932
I10
asS'sins'
p4933
(lp4934
I19
asS'delivering'
p4935
(lp4936
I20
asS'desired'
p4937
(lp4938
I10
asS'bachelor'
p4939
(lp4940
I15
asS'let'
p4941
(lp4942
I2
aI3
aI4
aI5
aI6
aI9
aI11
aI12
aI13
aI15
aI16
aI17
aI18
aI19
aI20
aI21
aI22
asS'ferry'
p4943
(lp4944
I18
asS'sing'
p4945
(lp4946
I3
aI22
asS'fifteen'
p4947
(lp4948
I6
asS'vinegar'
p4949
(lp4950
I2
asS'great'
p4951
(lp4952
I2
aI3
aI6
aI20
asS'receive'
p4953
(lp4954
I2
aI16
aI20
asS'scatter'
p4955
(lp4956
I2
asS'janus'
p4957
(lp4958
I2
asS'survey'
p4959
(lp4960
I11
asS'requite'
p4961
(lp4962
I3
asS'opinion'
p4963
(lp4964
I2
aI19
aI20
asS'spices'
p4965
(lp4966
I2
asS'makes'
p4967
(lp4968
I2
aI3
aI16
aI18
aI20
asS'clime'
p4969
(lp4970
I5
asS'salerio'
p4971
(lp4972
I1
aI16
aI20
asS'chaste'
p4973
(lp4974
I3
asS'apple'
p4975
(lp4976
I4
asS'lords'
p4977
(lp4978
I2
aI3
asS'forbid'
p4979
(lp4980
I6
aI20
asS'win'
p4981
(lp4982
I5
aI16
asS'limp'
p4983
(lp4984
I16
asS'confession'
p4985
(lp4986
I16
asS'unwillingly'
p4987
(lp4988
I22
asS'wit'
p4989
(lp4990
I2
aI5
aI13
aI19
aI20
asS'counsels'
p4991
(lp4992
I16
asS'privately'
p4993
(lp4994
I8
asS'lodging'
p4995
(lp4996
I6
aI8
asS'standing'
p4997
(lp4998
I2
asS'commandment'
p4999
(lp5000
I20
asS'fed'
p5001
(lp5002
I15
aI16
asS'fee'
p5003
(lp5004
I15
aI20
aI22
asS'from'
p5005
(lp5006
I2
aI3
aI4
aI5
aI6
aI8
aI10
aI11
aI12
aI13
aI15
aI16
aI17
aI18
aI20
aI22
asS'hears'
p5007
(lp5008
I3
asS'throw'
p5009
(lp5010
I5
asS'few'
p5011
(lp5012
I16
asS'doubt'
p5013
(lp5014
I2
aI3
aI16
asS'weeping'
p5015
(lp5016
I3
asS'themselves'
p5017
(lp5018
I10
aI16
aI20
asS'stage'
p5019
(lp5020
I2
asS'defendant'
p5021
(lp5022
I20
asS'sort'
p5023
(lp5024
I2
aI3
aI22
asS'confiscate'
p5025
(lp5026
I20
asS'humbleness'
p5027
(lp5028
I4
aI20
asS'beauteous'
p5029
(lp5030
I16
asS'engender'
p5031
(lp5032
I16
asS'comparison'
p5033
(lp5034
I16
asS'becomes'
p5035
(lp5036
I20
asS'fiend'
p5037
(lp5038
I6
asS'infection'
p5039
(lp5040
I6
asS'dealings'
p5041
(lp5042
I4
asS'train'
p5043
(lp5044
I5
aI11
aI13
aI20
asS'parrots'
p5045
(lp5046
I2
aI19
asS'ashamed'
p5047
(lp5048
I7
aI10
asS'muttons'
p5049
(lp5050
I4
asS'iii'
p5051
(lp5052
I4
aI7
aI15
aI16
aI17
aI18
aI19
asS'broth'
p5053
(lp5054
I2
asS'women'
p5055
(lp5056
I19
asS'high'
p5057
(lp5058
I2
aI6
aI13
aI16
aI20
asS'account'
p5059
(lp5060
I16
aI20
asS'balls'
p5061
(lp5062
I16
asS'animals'
p5063
(lp5064
I20
asS'locks'
p5065
(lp5066
I2
aI16
asS'this'
p5067
(lp5068
I2
aI3
aI4
aI5
aI6
aI7
aI8
aI9
aI10
aI11
aI12
aI13
aI16
aI17
aI18
aI19
aI20
aI21
aI22
asS'when'
p5069
(lp5070
I2
aI3
aI4
aI5
aI6
aI9
aI10
aI12
aI13
aI15
aI16
aI18
aI19
aI20
aI22
asS'lichas'
p5071
(lp5072
I5
asS'praise'
p5073
(lp5074
I3
aI16
aI19
aI22
asS'of'
p5075
(lp5076
I1
aI2
aI3
aI4
aI5
aI6
aI7
aI8
aI9
aI10
aI11
aI12
aI13
aI15
aI16
aI17
aI18
aI19
aI20
aI21
aI22
asS'margery'
p5077
(lp5078
I6
asS'meet'
p5079
(lp5080
I2
aI4
aI8
aI15
aI18
aI19
aI20
asS'drops'
p5081
(lp5082
I6
aI7
aI20
asS'coffin'
p5083
(lp5084
I15
asS'proof'
p5085
(lp5086
I2
asS'weaker'
p5087
(lp5088
I5
asS'pawn'
p5089
(lp5090
I19
asS'process'
p5091
(lp5092
I20
asS'lock'
p5093
(lp5094
I9
aI16
asS'purposes'
p5095
(lp5096
I2
asS'escaped'
p5097
(lp5098
I15
asS'bones'
p5099
(lp5100
I20
asS'villain'
p5101
(lp5102
I4
aI12
asS'something'
p5103
(lp5104
I2
aI6
aI7
aI16
aI19
aI20
asS'sought'
p5105
(lp5106
I18
asS'trumpet'
p5107
(lp5108
I22
asS'native'
p5109
(lp5110
I10
asS'lamb'
p5111
(lp5112
I20
asS'sir'
p5113
(lp5114
I2
aI4
aI6
aI8
aI9
aI19
aI20
aI21
aI22
asS'conceit'
p5115
(lp5116
I2
aI18
asS'daring'
p5117
(lp5118
I5
asS'sit'
p5119
(lp5120
I2
aI20
aI22
asS'six'
p5121
(lp5122
I9
aI16
aI20
asS'poetry'
p5123
(lp5124
I22
asS'fortunate'
p5125
(lp5126
I2
asS'counterfeit'
p5127
(lp5128
I16
asS'sin'
p5129
(lp5130
I3
aI7
aI16
asS'mislike'
p5131
(lp5132
I5
asS'watery'
p5133
(lp5134
I11
aI16
asS'cobwebs'
p5135
(lp5136
I16
asS'ceremoniously'
p5137
(lp5138
I22
asS'attend'
p5139
(lp5140
I2
aI18
asS'stop'
p5141
(lp5142
I9
aI11
aI15
aI20
asS'waters'
p5143
(lp5144
I2
aI4
aI6
aI22
asS'hazard'
p5145
(lp5146
I2
aI5
aI11
aI13
aI16
asS'perjury'
p5147
(lp5148
I20
asS'leisure'
p5149
(lp5150
I20
aI22
asS'fray'
p5151
(lp5152
I16
asS'winter'
p5153
(lp5154
I15
asS'frowning'
p5155
(lp5156
I3
aI16
asS'light'
p5157
(lp5158
I6
aI10
aI20
aI22
asS'budge'
p5159
(lp5160
I6
asS'acquitted'
p5161
(lp5162
I20
aI22
asS'chief'
p5163
(lp5164
I2
asS'courage'
p5165
(lp5166
I20
asS'writ'
p5167
(lp5168
I8
asS'stony'
p5169
(lp5170
I20
asS'hid'
p5171
(lp5172
I2
aI6
aI22
asS'furnish'
p5173
(lp5174
I2
aI4
aI8
asS'hie'
p5175
(lp5176
I4
aI6
asS'ha'
p5177
(lp5178
I9
aI13
aI15
aI22
asS'holds'
p5179
(lp5180
I10
aI20
asS'beauties'
p5181
(lp5182
I16
asS'stamped'
p5183
(lp5184
I11
asS'wedding'
p5185
(lp5186
I16
asS'ladies'
p5187
(lp5188
I18
aI22
asS'doubtful'
p5189
(lp5190
I16
asS'report'
p5191
(lp5192
I15
asS'dearest'
p5193
(lp5194
I16
aI20
asS'looks'
p5195
(lp5196
I4
aI20
aI22
asS'interpreter'
p5197
(lp5198
I18
asS'thyself'
p5199
(lp5200
I20
aI22
asS'le'
p5201
(lp5202
I3
asS'strumpet'
p5203
(lp5204
I10
asS'wis'
p5205
(lp5206
I13
asS'decay'
p5207
(lp5208
I22
asS'chosen'
p5209
(lp5210
I3
asS'll'
p5211
(lp5212
I2
aI3
aI4
aI6
aI8
aI9
aI10
aI11
aI13
aI15
aI16
aI17
aI18
aI19
aI20
aI21
aI22
asS'miscarried'
p5213
(lp5214
I12
aI16
aI22
asS'ships'
p5215
(lp5216
I4
aI16
aI22
asS'whereof'
p5217
(lp5218
I2
aI3
aI20
asS'meantime'
p5219
(lp5220
I16
aI20
asS'lt'
p5221
(lp5222
I20
asS'thieves'
p5223
(lp5224
I4
aI10
asS'degrees'
p5225
(lp5226
I13
asS'choose'
p5227
(lp5228
I3
aI5
aI11
aI13
aI15
aI16
aI20
asS'covered'
p5229
(lp5230
I19
asS'prosper'
p5231
(lp5232
I16
asS'pure'
p5233
(lp5234
I2
asS'dam'
p5235
(lp5236
I15
aI20
asS'flew'
p5237
(lp5238
I15
asS'dock'
p5239
(lp5240
I2
asS'cutting'
p5241
(lp5242
I20
asS'kiss'
p5243
(lp5244
I2
aI11
aI13
aI16
aI22
asS'hands'
p5245
(lp5246
I15
aI18
aI20
asS'kindness'
p5247
(lp5248
I4
asS'affections'
p5249
(lp5250
I2
aI15
aI22
asS'day'
p5251
(lp5252
I2
aI4
aI6
aI9
aI12
aI13
aI16
aI18
aI20
aI21
aI22
asS'masters'
p5253
(lp5254
I22
asS'husbandry'
p5255
(lp5256
I18
asS'profound'
p5257
(lp5258
I2
asS'feast'
p5259
(lp5260
I6
aI10
aI16
asS'weather'
p5261
(lp5262
I10
aI13
asS'treads'
p5263
(lp5264
I12
asS'truth'
p5265
(lp5266
I3
aI6
aI16
aI20
aI22
asS'crossing'
p5267
(lp5268
I15
asS'gaoler'
p5269
(lp5270
I1
aI17
asS'paler'
p5271
(lp5272
I22
asS'gazing'
p5273
(lp5274
I16
asS'|'
p5275
(lp5276
I1
asS'beshrew'
p5277
(lp5278
I10
aI16
asS'commonwealth'
p5279
(lp5280
I19
asS'fare'
p5281
(lp5282
I2
aI6
aI7
aI11
aI18
aI20
asS'suitors'
p5283
(lp5284
I1
aI2
aI3
asS'tents'
p5285
(lp5286
I22
asS'doing'
p5287
(lp5288
I4
aI16
aI18
aI20
asS'heated'
p5289
(lp5290
I15
asS'books'
p5291
(lp5292
I6
aI20
asS'measure'
p5293
(lp5294
I16
aI18
asS'our'
p5295
(lp5296
I2
aI4
aI5
aI7
aI10
aI12
aI13
aI15
aI16
aI18
aI20
aI21
aI22
asS'patch'
p5297
(lp5298
I9
asS'sceptred'
p5299
(lp5300
I20
asS'phoebus'
p5301
(lp5302
I5
asS'sandy'
p5303
(lp5304
I2
asS'out'
p5305
(lp5306
I2
aI4
aI6
aI9
aI10
aI12
aI15
aI16
aI17
aI18
aI19
aI20
aI21
aI22
asS'secretly'
p5307
(lp5308
I7
asS'halter'
p5309
(lp5310
I6
aI20
asS'hasted'
p5311
(lp5312
I6
asS'unhallow'
p5313
(lp5314
I20
asS'confess'
p5315
(lp5316
I16
aI20
asS'ducats'
p5317
(lp5318
I4
aI10
aI12
aI15
aI16
aI20
aI22
asS'messenger'
p5319
(lp5320
I16
aI20
aI22
asS'wondrous'
p5321
(lp5322
I2
aI12
asS'scimitar'
p5323
(lp5324
I5
asS'impart'
p5325
(lp5326
I16
asS'solemnized'
p5327
(lp5328
I13
asS'cause'
p5329
(lp5330
I6
aI17
aI20
aI22
asS'red'
p5331
(lp5332
I15
asS'hedged'
p5333
(lp5334
I5
asS'shut'
p5335
(lp5336
I3
aI9
asS'jessica'
p5337
(lp5338
I1
aI7
aI8
aI9
aI10
aI12
aI16
aI18
aI19
aI22
asS'greedy'
p5339
(lp5340
I16
asS'attending'
p5341
(lp5342
I5
asS'shun'
p5343
(lp5344
I19
asS'afterward'
p5345
(lp5346
I5
asS'shrew'
p5347
(lp5348
I22
asS'drowning'
p5349
(lp5350
I6
asS'overtake'
p5351
(lp5352
I20
asS'prepare'
p5353
(lp5354
I8
aI19
aI20
aI22
asS'could'
p5355
(lp5356
I3
aI9
aI10
aI16
aI18
aI19
aI20
aI22
asS'ask'
p5357
(lp5358
I19
aI20
asS'times'
p5359
(lp5360
I4
aI10
aI11
aI13
aI16
aI17
aI20
asS'stride'
p5361
(lp5362
I18
asS'length'
p5363
(lp5364
I6
aI16
asS'alighted'
p5365
(lp5366
I13
asS'mortal'
p5367
(lp5368
I11
asS'hence'
p5369
(lp5370
I8
aI13
aI16
aI20
aI22
asS'grieving'
p5371
(lp5372
I5
asS'scarf'
p5373
(lp5374
I16
asS'rhenish'
p5375
(lp5376
I3
aI15
asS'pines'
p5377
(lp5378
I20
asS'scene'
p5379
(lp5380
I1
aI2
aI3
aI4
aI5
aI6
aI7
aI8
aI9
aI10
aI11
aI12
aI13
aI15
aI16
aI17
aI18
aI19
aI20
aI21
aI22
asS'attendeth'
p5381
(lp5382
I20
asS'bonnet'
p5383
(lp5384
I3
asS'twas'
p5385
(lp5386
I13
asS'signify'
p5387
(lp5388
I8
aI13
aI22
asS'quality'
p5389
(lp5390
I16
aI20
asS'moiety'
p5391
(lp5392
I20
asS'ancient'
p5393
(lp5394
I4
aI13
aI16
asS'monkey'
p5395
(lp5396
I15
asS'strict'
p5397
(lp5398
I20
asS'bears'
p5399
(lp5400
I11
aI20
asS'unknown'
p5401
(lp5402
I2
asS'chased'
p5403
(lp5404
I10
asS'their'
p5405
(lp5406
I2
aI3
aI11
aI12
aI13
aI16
aI20
aI22
asS'bassanio'
p5407
(lp5408
I1
aI2
aI3
aI4
aI6
aI9
aI10
aI12
aI13
aI16
aI17
aI18
aI19
aI20
aI21
aI22
asS'scant'
p5409
(lp5410
I16
aI22
asS'fairest'
p5411
(lp5412
I5
asS'beard'
p5413
(lp5414
I4
aI6
asS'stomach'
p5415
(lp5416
I19
asS'gear'
p5417
(lp5418
I2
aI6
asS'readiness'
p5419
(lp5420
I8
asS'shallow'
p5421
(lp5422
I9
asS'negro'
p5423
(lp5424
I19
asS'mules'
p5425
(lp5426
I20
asS'makest'
p5427
(lp5428
I16
aI20
asS'outswear'
p5429
(lp5430
I21
asS'herself'
p5431
(lp5432
I10
aI20
asS'neck'
p5433
(lp5434
I6
aI9
asS'loved'
p5435
(lp5436
I5
aI16
aI20
aI22
asS'spurn'
p5437
(lp5438
I4
asS'aught'
p5439
(lp5440
I3
aI6
aI11
aI16
aI22
asS'quietness'
p5441
(lp5442
I20
asS'lion'
p5443
(lp5444
I5
aI22
asS'bed'
p5445
(lp5446
I6
aI11
aI13
aI16
aI22
asS'claim'
p5447
(lp5448
I16
aI20
asS'humours'
p5449
(lp5450
I19
asS'squealing'
p5451
(lp5452
I9
asS'lover'
p5453
(lp5454
I18
asS'visited'
p5455
(lp5456
I19
asS'matched'
p5457
(lp5458
I15
asS'gaged'
p5459
(lp5460
I2
asS'creditors'
p5461
(lp5462
I15
aI16
asS'are'
p5463
(lp5464
I2
aI3
aI4
aI6
aI9
aI10
aI11
aI13
aI15
aI16
aI18
aI19
aI20
aI21
aI22
asS'exhibit'
p5465
(lp5466
I7
asS'enforced'
p5467
(lp5468
I16
aI22
asS'false'
p5469
(lp5470
I3
aI16
aI22
asS'thwarted'
p5471
(lp5472
I15
asS'wakes'
p5473
(lp5474
I2
asS'bellario'
p5475
(lp5476
I18
aI20
aI22
asS'beefs'
p5477
(lp5478
I4
asS'gentle'
p5479
(lp5480
I2
aI4
aI5
aI8
aI11
aI16
aI20
aI22
asS'torment'
p5481
(lp5482
I16
asS'defending'
p5483
(lp5484
I22
asS'have'
p5485
(lp5486
I2
aI3
aI4
aI5
aI6
aI7
aI8
aI9
aI10
aI11
aI13
aI15
aI16
aI17
aI18
aI19
aI20
aI21
aI22
asS'close'
p5487
(lp5488
I10
aI22
asS'need'
p5489
(lp5490
I3
aI4
aI19
asS'competency'
p5491
(lp5492
I3
asS'bastard'
p5493
(lp5494
I19
asS'smallest'
p5495
(lp5496
I22
asS'able'
p5497
(lp5498
I3
aI20
asS'gravity'
p5499
(lp5500
I2
asS'purchasing'
p5501
(lp5502
I18
asS'arm'
p5503
(lp5504
I20
asS'issuing'
p5505
(lp5506
I16
asS'which'
p5507
(lp5508
I2
aI3
aI4
aI5
aI6
aI10
aI11
aI12
aI13
aI16
aI18
aI20
aI21
aI22
asS'injunctions'
p5509
(lp5510
I13
asS'cozen'
p5511
(lp5512
I13
asS'divers'
p5513
(lp5514
I15
asS'adieu'
p5515
(lp5516
I4
aI7
aI11
aI13
asS'unless'
p5517
(lp5518
I3
aI8
aI15
aI16
aI20
aI22
asS'expires'
p5519
(lp5520
I4
asS'predicament'
p5521
(lp5522
I20
asS'offend'
p5523
(lp5524
I13
aI20
asS'courtesy'
p5525
(lp5526
I15
aI20
aI22
asS'carcasses'
p5527
(lp5528
I15
asS'device'
p5529
(lp5530
I18
asS'cupid'
p5531
(lp5532
I10
aI13
asS'awe'
p5533
(lp5534
I20
asS'why'
p5535
(lp5536
I2
aI3
aI4
aI6
aI9
aI10
aI11
aI12
aI13
aI15
aI18
aI19
aI20
aI22
asS'deny'
p5537
(lp5538
I6
aI16
aI17
aI18
aI20
aI22
asS'bred'
p5539
(lp5540
I5
aI16
asS'request'
p5541
(lp5542
I17
aI20
asS'face'
p5543
(lp5544
I4
aI6
aI11
aI12
aI20
aI22
asS'looked'
p5545
(lp5546
I3
asS'demurely'
p5547
(lp5548
I6
asS'occasion'
p5549
(lp5550
I2
aI19
asS'outlive'
p5551
(lp5552
I20
asS'ho'
p5553
(lp5554
I10
aI22
asS'deface'
p5555
(lp5556
I16
asS'manly'
p5557
(lp5558
I7
aI18
asS'inspirations'
p5559
(lp5560
I3
asS'wilful'
p5561
(lp5562
I2
asS'text'
p5563
(lp5564
I16
asS'woolly'
p5565
(lp5566
I4
asS'bring'
p5567
(lp5568
I2
aI4
aI5
aI16
aI18
aI20
aI22
asS'utter'
p5569
(lp5570
I12
asS'fear'
p5571
(lp5572
I2
aI3
aI4
aI5
aI16
aI19
aI20
aI22
asS'pleased'
p5573
(lp5574
I16
aI18
aI20
aI22
asS'staff'
p5575
(lp5576
I6
aI9
asS'envy'
p5577
(lp5578
I20
asS'pause'
p5579
(lp5580
I11
aI13
aI16
aI20
asS'knowledge'
p5581
(lp5582
I2
asS'rash'
p5583
(lp5584
I16
asS'should'
p5585
(lp5586
I2
aI3
aI4
aI6
aI9
aI10
aI13
aI15
aI16
aI19
aI20
aI22
asS'planted'
p5587
(lp5588
I19
asS'notes'
p5589
(lp5590
I18
asS'riding'
p5591
(lp5592
I16
asS'colt'
p5593
(lp5594
I3
asS'hope'
p5595
(lp5596
I3
aI6
aI11
aI13
aI19
aI20
aI22
asS'meant'
p5597
(lp5598
I13
asS'gratify'
p5599
(lp5600
I20
asS'move'
p5601
(lp5602
I16
asS'commendation'
p5603
(lp5604
I20
asS'means'
p5605
(lp5606
I2
aI4
aI5
aI15
aI16
aI20
aI22
asS'fellow'
p5607
(lp5608
I2
aI18
aI19
aI22
asS'alabaster'
p5609
(lp5610
I2
asS'rush'
p5611
(lp5612
I20
asS'bear'
p5613
(lp5614
I4
aI5
aI13
aI16
aI18
aI20
asS'likely'
p5615
(lp5616
I13
asS'enthroned'
p5617
(lp5618
I20
asS'abundance'
p5619
(lp5620
I3
asS'cubs'
p5621
(lp5622
I5
asS'words'
p5623
(lp5624
I9
aI16
aI18
aI19
aI20
aI22
asS'princes'
p5625
(lp5626
I3
aI11
asS'mincing'
p5627
(lp5628
I18
asS'whilst'
p5629
(lp5630
I16
aI20
aI22
asS'fooling'
p5631
(lp5632
I6
asS'summon'
p5633
(lp5634
I16
asS'dobbin'
p5635
(lp5636
I6
asS'stuff'
p5637
(lp5638
I2
asS'she'
p5639
(lp5640
I2
aI5
aI6
aI8
aI10
aI11
aI12
aI15
aI16
aI19
aI20
aI22
asS'contain'
p5641
(lp5642
I13
aI20
aI22
asS'nightingale'
p5643
(lp5644
I22
asS'rein'
p5645
(lp5646
I16
asS'shk'
p5647
(lp5648
I1
aI2
aI3
aI4
aI5
aI6
aI7
aI8
aI9
aI10
aI11
aI12
aI13
aI14
aI15
aI16
aI17
aI18
aI19
aI20
aI21
aI22
asS'pertains'
p5649
(lp5650
I16
asS'deceived'
p5651
(lp5652
I7
aI16
aI22
asS'madam'
p5653
(lp5654
I3
aI13
aI16
aI18
aI22
asS'shedding'
p5655
(lp5656
I15
asS'farthest'
p5657
(lp5658
I6
asS'accepted'
p5659
(lp5660
I22
asS'prayers'
p5661
(lp5662
I17
aI20
asS'shake'
p5663
(lp5664
I17
asS'begot'
p5665
(lp5666
I16
asS'infidel'
p5667
(lp5668
I16
aI20
asS'usance'
p5669
(lp5670
I4
asS'converting'
p5671
(lp5672
I19
asS'underprizing'
p5673
(lp5674
I16
asS'ertrip'
p5675
(lp5676
I22
asS'shallows'
p5677
(lp5678
I2
asS'error'
p5679
(lp5680
I16
aI20
asS'imposition'
p5681
(lp5682
I3
aI18
asS'frankfort'
p5683
(lp5684
I15
asS'relent'
p5685
(lp5686
I17
asS'joys'
p5687
(lp5688
I19
asS'vows'
p5689
(lp5690
I22
asS'sails'
p5691
(lp5692
I10
asS'state'
p5693
(lp5694
I16
aI17
aI18
aI20
aI22
asS'neither'
p5695
(lp5696
I2
aI3
aI4
aI19
aI20
aI22
asS'bought'
p5697
(lp5698
I3
aI6
aI16
aI20
asS'sole'
p5699
(lp5700
I20
asS'jot'
p5701
(lp5702
I20
asS'opening'
p5703
(lp5704
I16
asS'joy'
p5705
(lp5706
I16
asS'deliver'
p5707
(lp5708
I11
aI17
aI20
asS'limbs'
p5709
(lp5710
I11
asS'merry'
p5711
(lp5712
I2
aI3
aI4
aI7
aI12
aI16
aI22
asS'precious'
p5713
(lp5714
I12
aI15
asS'swift'
p5715
(lp5716
I16
asS'chiefest'
p5717
(lp5718
I12
asS'antipodes'
p5719
(lp5720
I22
asS'exclaim'
p5721
(lp5722
I16
asS'instant'
p5723
(lp5724
I19
aI20
asS'freely'
p5725
(lp5726
I16
aI20
asS'taking'
p5727
(lp5728
I4
asS'acknowledge'
p5729
(lp5730
I18
asS'equal'
p5731
(lp5732
I4
aI18
asS'rams'
p5733
(lp5734
I4
asS'april'
p5735
(lp5736
I13
asS'admit'
p5737
(lp5738
I20
asS'estimation'
p5739
(lp5740
I11
aI20
asS'safely'
p5741
(lp5742
I22
asS'cudgel'
p5743
(lp5744
I6
asS'cornets'
p5745
(lp5746
I5
aI11
aI13
asS'diest'
p5747
(lp5748
I20
asS'bearing'
p5749
(lp5750
I6
aI18
asS'wall'
p5751
(lp5752
I13
asS'brook'
p5753
(lp5754
I11
aI22
asS'walk'
p5755
(lp5756
I4
aI22
asS'commend'
p5757
(lp5758
I20
asS'rehearsed'
p5759
(lp5760
I20
asS'laugh'
p5761
(lp5762
I2
aI15
asS'cousin'
p5763
(lp5764
I18
asS'whispering'
p5765
(lp5766
I4
asS'respect'
p5767
(lp5768
I2
aI6
aI22
asS'quit'
p5769
(lp5770
I20
asS'gondola'
p5771
(lp5772
I12
asS'muddy'
p5773
(lp5774
I22
asS'questionless'
p5775
(lp5776
I2
asS'thanked'
p5777
(lp5778
I6
asS'cowards'
p5779
(lp5780
I16
asS'lingering'
p5781
(lp5782
I20
asS'gaze'
p5783
(lp5784
I9
aI22
asS'seasoned'
p5785
(lp5786
I16
asS'poet'
p5787
(lp5788
I22
asS'curtain'
p5789
(lp5790
I13
asS'feather'
p5791
(lp5792
I6
asS'waste'
p5793
(lp5794
I2
aI9
aI18
asS'tyranny'
p5795
(lp5796
I20
asS'shoulders'
p5797
(lp5798
I15
asS'senses'
p5799
(lp5800
I15
asS'general'
p5801
(lp5802
I20
asS'received'
p5803
(lp5804
I22
asS'moved'
p5805
(lp5806
I22
asS'sufficient'
p5807
(lp5808
I4
asS'neighbour'
p5809
(lp5810
I3
aI5
asS'sirrah'
p5811
(lp5812
I3
aI9
aI19
asS'nuptial'
p5813
(lp5814
I13
asS'gross'
p5815
(lp5816
I4
aI11
aI16
asS'abject'
p5817
(lp5818
I20
asS'capering'
p5819
(lp5820
I3
asS'painter'
p5821
(lp5822
I16
asS'debtor'
p5823
(lp5824
I2
asS'main'
p5825
(lp5826
I20
aI22
asS'basket'
p5827
(lp5828
I6
asS'unlike'
p5829
(lp5830
I13
asS'wilt'
p5831
(lp5832
I4
aI7
aI13
aI15
aI19
aI20
asS'coals'
p5833
(lp5834
I19
asS'harder'
p5835
(lp5836
I20
asS'value'
p5837
(lp5838
I4
aI11
aI13
aI16
aI20
aI22
asS'montferrat'
p5839
(lp5840
I3
asS'wearies'
p5841
(lp5842
I2
asS'fault'
p5843
(lp5844
I16
aI22
asS'wild'
p5845
(lp5846
I6
aI9
aI16
aI22
asS'loathes'
p5847
(lp5848
I20
asS'outcries'
p5849
(lp5850
I12
asS'ripe'
p5851
(lp5852
I4
asS'almost'
p5853
(lp5854
I2
aI10
aI20
aI22
asS'vi'
p5855
(lp5856
I10
asS'thus'
p5857
(lp5858
I4
aI6
aI10
aI11
aI13
aI16
aI18
aI19
aI20
asS'neapolitan'
p5859
(lp5860
I3
asS'demi'
p5861
(lp5862
I16
asS'turns'
p5863
(lp5864
I16
asS'arabia'
p5865
(lp5866
I11
asS'lambs'
p5867
(lp5868
I4
asS'sits'
p5869
(lp5870
I2
aI10
asS'greater'
p5871
(lp5872
I5
aI22
asS'servants'
p5873
(lp5874
I1
aI16
aI22
asS'perhaps'
p5875
(lp5876
I9
asS'parti'
p5877
(lp5878
I4
asS'crost'
p5879
(lp5880
I9
asS'valour'
p5881
(lp5882
I16
asS'anon'
p5883
(lp5884
I6
aI13
aI19
asS'member'
p5885
(lp5886
I19
asS'parts'
p5887
(lp5888
I3
aI6
aI16
aI20
asS'speaker'
p5889
(lp5890
I2
aI3
aI4
aI5
aI6
aI7
aI8
aI9
aI10
aI11
aI12
aI13
aI15
aI16
aI17
aI18
aI19
aI20
aI21
aI22
asS'merciful'
p5891
(lp5892
I20
asS'snaky'
p5893
(lp5894
I16
asS'party'
p5895
(lp5896
I20
asS'fill'
p5897
(lp5898
I6
aI20
asS'inlaid'
p5899
(lp5900
I22
asS'slave'
p5901
(lp5902
I20
asS'sayest'
p5903
(lp5904
I15
asS'flesh'
p5905
(lp5906
I4
aI6
aI15
aI16
aI17
aI20
aI22
asS'shames'
p5907
(lp5908
I4
aI10
asS'wisest'
p5909
(lp5910
I16
asS'upon'
p5911
(lp5912
I2
aI3
aI4
aI6
aI9
aI11
aI12
aI15
aI16
aI18
aI19
aI20
aI21
aI22
asS'renowned'
p5913
(lp5914
I2
aI5
asS'beast'
p5915
(lp5916
I3
asS'hangman'
p5917
(lp5918
I20
asS'sisters'
p5919
(lp5920
I6
asS'casements'
p5921
(lp5922
I9
asS'judgment'
p5923
(lp5924
I11
aI13
aI20
asS'steals'
p5925
(lp5926
I16
asS'off'
p5927
(lp5928
I2
aI4
aI18
aI20
aI22
asS'i'
p5929
(lp5930
I2
aI3
aI4
aI5
aI6
aI7
aI8
aI9
aI10
aI11
aI12
aI13
aI15
aI16
aI17
aI18
aI19
aI20
aI21
aI22
asS'approve'
p5931
(lp5932
I16
asS'colour'
p5933
(lp5934
I4
aI16
asS'well'
p5935
(lp5936
I2
aI3
aI4
aI6
aI7
aI9
aI11
aI12
aI13
aI15
aI16
aI17
aI18
aI19
aI20
aI21
aI22
asS'obscure'
p5937
(lp5938
I11
asS'thought'
p5939
(lp5940
I2
aI11
aI12
aI16
aI20
aI22
asS'command'
p5941
(lp5942
I6
aI13
asS'oft'
p5943
(lp5944
I2
aI4
aI17
asS'english'
p5945
(lp5946
I3
aI12
asS'flint'
p5947
(lp5948
I20
asS'fail'
p5949
(lp5950
I2
aI6
aI8
aI13
aI16
asS'usual'
p5951
(lp5952
I20
asS'lest'
p5953
(lp5954
I6
aI15
aI16
aI20
asS'riveted'
p5955
(lp5956
I22
asS'less'
p5957
(lp5958
I16
aI19
aI20
aI22
asS'wren'
p5959
(lp5960
I22
asS'half'
p5961
(lp5962
I13
aI15
aI16
aI20
aI22
asS'obtain'
p5963
(lp5964
I6
asS'keen'
p5965
(lp5966
I10
aI16
aI20
asS'happiness'
p5967
(lp5968
I3
asS'wether'
p5969
(lp5970
I20
asS'cheerest'
p5971
(lp5972
I19
asS'drunk'
p5973
(lp5974
I3
asS'smith'
p5975
(lp5976
I3
asS'fled'
p5977
(lp5978
I12
asS'drew'
p5979
(lp5980
I22
asS'simple'
p5981
(lp5982
I6
aI16
asS'add'
p5983
(lp5984
I22
asS'book'
p5985
(lp5986
I6
asS'citizen'
p5987
(lp5988
I20
asS'confusions'
p5989
(lp5990
I6
asS'earnestly'
p5991
(lp5992
I20
asS'practise'
p5993
(lp5994
I18
asS'warrant'
p5995
(lp5996
I21
asS'match'
p5997
(lp5998
I15
aI19
asS'devised'
p5999
(lp6000
I3
asS'pied'
p6001
(lp6002
I4
asS'grandsire'
p6003
(lp6004
I2
asS'execute'
p6005
(lp6006
I15
asS'corruptly'
p6007
(lp6008
I13
asS'five'
p6009
(lp6010
I6
asS'wooer'
p6011
(lp6012
I3
asS'presume'
p6013
(lp6014
I13
asS'press'
p6015
(lp6016
I20
asS'immediately'
p6017
(lp6018
I9
aI13
asS'hollow'
p6019
(lp6020
I20
asS'you'
p6021
(lp6022
I2
aI3
aI4
aI5
aI6
aI8
aI9
aI10
aI11
aI12
aI13
aI15
aI16
aI18
aI19
aI20
aI21
aI22
asS'prest'
p6023
(lp6024
I2
asS'loss'
p6025
(lp6026
I15
asS'showing'
p6027
(lp6028
I2
asS'like'
p6029
(lp6030
I2
aI3
aI4
aI6
aI10
aI11
aI13
aI15
aI16
aI18
aI19
aI20
aI22
asS'success'
p6031
(lp6032
I16
asS'clown'
p6033
(lp6034
I1
asS'heed'
p6035
(lp6036
I6
asS'lose'
p6037
(lp6038
I2
aI6
aI13
aI16
aI20
asS'become'
p6039
(lp6040
I4
aI6
aI7
aI12
aI20
aI22
asS'works'
p6041
(lp6042
I16
asS'soft'
p6043
(lp6044
I4
aI17
aI20
aI22
asS'page'
p6045
(lp6046
I5
aI8
asS'lends'
p6047
(lp6048
I4
asS'therein'
p6049
(lp6050
I16
aI20
asS'warmed'
p6051
(lp6052
I15
asS'because'
p6053
(lp6054
I2
aI13
aI19
aI20
asS'whither'
p6055
(lp6056
I8
asS'portly'
p6057
(lp6058
I2
asS'church'
p6059
(lp6060
I2
aI16
asS'thief'
p6061
(lp6062
I15
asS'authority'
p6063
(lp6064
I16
aI20
asS'immortal'
p6065
(lp6066
I22
asS'hair'
p6067
(lp6068
I6
aI16
aI20
aI22
asS'daylight'
p6069
(lp6070
I22
asS'lading'
p6071
(lp6072
I15
asS'solemnize'
p6073
(lp6074
I16
asS'choosing'
p6075
(lp6076
I5
aI16
asS'proper'
p6077
(lp6078
I3
aI16
asS'home'
p6079
(lp6080
I3
aI4
aI20
aI21
aI22
asS'shrug'
p6081
(lp6082
I4
asS'leaden'
p6083
(lp6084
I11
aI16
asS'lead'
p6085
(lp6086
I3
aI5
aI11
aI13
aI16
aI20
asS'interposer'
p6087
(lp6088
I16
asS'leah'
p6089
(lp6090
I15
asS'lean'
p6091
(lp6092
I10
asS'philosopher'
p6093
(lp6094
I3
asS'leap'
p6095
(lp6096
I2
asS'cradle'
p6097
(lp6098
I16
asS'discretion'
p6099
(lp6100
I19
asS'adventuring'
p6101
(lp6102
I2
asS'fretten'
p6103
(lp6104
I20
asS'redoubted'
p6105
(lp6106
I16
asS'hose'
p6107
(lp6108
I3
asS'obey'
p6109
(lp6110
I18
asS'schedule'
p6111
(lp6112
I13
asS'threatenest'
p6113
(lp6114
I16
asS'snapper'
p6115
(lp6116
I19
asS'likewise'
p6117
(lp6118
I1
asS'although'
p6119
(lp6120
I4
aI18
asS'worthy'
p6121
(lp6122
I3
aI20
aI22
asS'adversary'
p6123
(lp6124
I20
asS'beneath'
p6125
(lp6126
I20
asS'sways'
p6127
(lp6128
I20
asS'hiding'
p6129
(lp6130
I16
asS'about'
p6131
(lp6132
I2
aI4
aI6
aI8
aI10
aI13
aI22
asS'rare'
p6133
(lp6134
I6
asS'boards'
p6135
(lp6136
I4
asS'linger'
p6137
(lp6138
I13
asS'freedom'
p6139
(lp6140
I16
aI20
asS'certainty'
p6141
(lp6142
I10
asS'carries'
p6143
(lp6144
I11
asS'swear'
p6145
(lp6146
I2
aI3
aI5
aI6
aI9
aI10
aI13
aI15
aI16
aI18
aI20
aI21
aI22
asS'sweat'
p6147
(lp6148
I16
aI20
asS'tongue'
p6149
(lp6150
I2
aI6
aI7
aI10
aI16
aI20
asS'persuaded'
p6151
(lp6152
I16
asS'warranty'
p6153
(lp6154
I2
asS'herbs'
p6155
(lp6156
I22
asS'contending'
p6157
(lp6158
I16
asS'letters'
p6159
(lp6160
I6
aI20
asS'wilderness'
p6161
(lp6162
I15
asS'dulcet'
p6163
(lp6164
I16
asS'owe'
p6165
(lp6166
I2
aI16
asS'getting'
p6167
(lp6168
I19
asS'guard'
p6169
(lp6170
I4
asS'congregate'
p6171
(lp6172
I4
asS'promise'
p6173
(lp6174
I7
aI11
aI16
aI19
asS'esteem'
p6175
(lp6176
I6
aI20
asS'lawful'
p6177
(lp6178
I20
asS'roads'
p6179
(lp6180
I2
asS'mere'
p6181
(lp6182
I16
asS'endeavours'
p6183
(lp6184
I6
asS'fawning'
p6185
(lp6186
I4
asS'crave'
p6187
(lp6188
I20
asS'faithfully'
p6189
(lp6190
I22
asS'younker'
p6191
(lp6192
I10
asS'preferment'
p6193
(lp6194
I6
asS'palatine'
p6195
(lp6196
I3
asS'heresy'
p6197
(lp6198
I13
asS'breeding'
p6199
(lp6200
I11
asS'ivory'
p6201
(lp6202
I15
asS'buy'
p6203
(lp6204
I2
aI4
asS'forthwith'
p6205
(lp6206
I4
asS'masque'
p6207
(lp6208
I8
aI9
aI10
asS'amity'
p6209
(lp6210
I16
aI18
asS'commands'
p6211
(lp6212
I18
asS'but'
p6213
(lp6214
I2
aI3
aI4
aI5
aI6
aI7
aI8
aI9
aI10
aI11
aI12
aI13
aI15
aI16
aI17
aI18
aI19
aI20
aI21
aI22
asS'plague'
p6215
(lp6216
I15
asS'gain'
p6217
(lp6218
I4
aI11
aI13
asS'ear'
p6219
(lp6220
I3
aI15
aI16
aI22
asS'eat'
p6221
(lp6222
I4
asS'he'
p6223
(lp6224
I2
aI3
aI4
aI5
aI6
aI9
aI10
aI11
aI12
aI13
aI15
aI16
aI17
aI18
aI19
aI20
aI22
asS'count'
p6225
(lp6226
I3
asS'stratagems'
p6227
(lp6228
I22
asS'scylla'
p6229
(lp6230
I19
asS'made'
p6231
(lp6232
I2
aI3
aI5
aI8
aI10
aI15
aI16
aI17
aI19
aI20
aI22
asS'wise'
p6233
(lp6234
I2
aI4
aI6
aI10
aI11
aI20
asS'marquis'
p6235
(lp6236
I3
asS'glory'
p6237
(lp6238
I22
asS'whether'
p6239
(lp6240
I6
aI10
aI15
aI16
aI20
aI22
asS'dangerous'
p6241
(lp6242
I2
aI15
aI16
asS'grieve'
p6243
(lp6244
I12
aI20
aI22
asS'warmth'
p6245
(lp6246
I3
asS'venetian'
p6247
(lp6248
I3
aI13
aI16
aI20
asS'placed'
p6249
(lp6250
I10
asS'cruel'
p6251
(lp6252
I16
aI20
asS'converted'
p6253
(lp6254
I16
asS'heiress'
p6255
(lp6256
I1
asS'quiring'
p6257
(lp6258
I22
asS'stirring'
p6259
(lp6260
I15
asS'slips'
p6261
(lp6262
I15
asS'rightly'
p6263
(lp6264
I3
asS'veiling'
p6265
(lp6266
I16
asS'devise'
p6267
(lp6268
I3
asS'universal'
p6269
(lp6270
I16
asS'pig'
p6271
(lp6272
I20
asS'outstare'
p6273
(lp6274
I5
asS'partly'
p6275
(lp6276
I1
aI19
asS'tranect'
p6277
(lp6278
I18
asS'didst'
p6279
(lp6280
I7
asS'regreets'
p6281
(lp6282
I13
asS'dressed'
p6283
(lp6284
I20
asS'detain'
p6285
(lp6286
I16
asS'deserved'
p6287
(lp6288
I20
aI22
asS'roars'
p6289
(lp6290
I5
asS'other'
p6291
(lp6292
I1
aI2
aI3
aI4
aI6
aI12
aI15
aI16
aI18
aI19
aI20
aI22
asS'witness'
p6293
(lp6294
I4
aI10
aI22
asS'sick'
p6295
(lp6296
I3
aI16
aI18
aI20
aI22
asS'behold'
p6297
(lp6298
I11
aI13
aI20
aI22
asS'uttermost'
p6299
(lp6300
I2
asS'semblance'
p6301
(lp6302
I18
asS'monday'
p6303
(lp6304
I9
asS'stay'
p6305
(lp6306
I2
aI6
aI10
aI12
aI16
aI20
aI22
asS'methinks'
p6307
(lp6308
I16
aI20
aI22
asS'chance'
p6309
(lp6310
I5
aI16
asS'earthly'
p6311
(lp6312
I19
aI20
asS'else'
p6313
(lp6314
I9
aI15
aI16
aI19
aI20
asS'friends'
p6315
(lp6316
I1
aI2
aI4
aI6
aI10
aI15
aI16
aI22
asS'curbed'
p6317
(lp6318
I3
asS'christians'
p6319
(lp6320
I4
aI19
asS'peize'
p6321
(lp6322
I16
asS'jewel'
p6323
(lp6324
I22
asS'rule'
p6325
(lp6326
I20
asS'indirectly'
p6327
(lp6328
I6
aI20
asS'entreat'
p6329
(lp6330
I6
aI16
aI20
aI21
asS'mercenary'
p6331
(lp6332
I20
asS'lives'
p6333
(lp6334
I3
aI15
asS'defend'
p6335
(lp6336
I3
asS'compromised'
p6337
(lp6338
I4
as.